******************************************************************************
               TMS320C6x Linker Unix v7.4.0                    
******************************************************************************
>> Linked Mon Nov 19 17:25:36 2012

OUTPUT FILE NAME:   <hua_evmc6670l.out>
ENTRY POINT SYMBOL: "_c_int00"  address: 8158bec0


MEMORY CONFIGURATION

         name            origin    length      used     unused   attr    fill
----------------------  --------  ---------  --------  --------  ----  --------
  L2SRAM_IBL_RESERVED   00800000   00020000  00000000  00020000  RW X
  L2SRAM                00820000   00060000  00009df0  00056210  RW X
  L1PSRAM               00e00000   00008000  00000000  00008000  RW X
  L1DSRAM               00f00000   00008000  00000000  00008000  RW  
  MSMCSRAM              0c000000   00400000  00057300  003a8d00  RW X
  DDR                   80000000   1fffffff  015e8514  1ea17aeb  RW X


SEGMENT ALLOCATION MAP

run origin  load origin   length   init length attrs members
----------  ----------- ---------- ----------- ----- -------
00820000    00820000    00008888   00000000    rw-
  00820000    00820000    00004000   00000000    rw- .resmgr_memregion
  00824000    00824000    00002400   00000000    rw- .qmss
  00826400    00826400    00001488   00000000    rw- .resmgr_pa
  00827888    00827888    00001000   00000000    rw- .stack
00828890    00828890    00000600   00000000    rw-
  00828890    00828890    00000600   00000000    rw- .far:NDK_OBJMEM
00828e90    00828e90    00000170   00000170    r--
  00828e90    00828e90    00000170   00000170    r-- .switch.1
00829000    00829000    00000200   00000200    r-x
  00829000    00829000    00000200   00000200    r-x .vecs
00829200    00829200    00000480   00000000    rw-
  00829200    00829200    00000480   00000000    rw- .cppi
00829680    00829680    000002a0   000002a0    r--
  00829680    00829680    000002a0   000002a0    r-- .switch.2
00829980    00829980    00000438   00000318    rw-
  00829980    00829980    00000318   00000318    rw- .nimu_eth_ll2
  00829c98    00829c98    00000120   00000000    rw- .cio
00829dc0    00829dc0    000000a0   00000000    rw-
  00829dc0    00829dc0    000000a0   00000000    rw- .resmgr_handles
0c000000    0c000000    00057300   00000000    rw-
  0c000000    0c000000    00052b00   00000000    rw- .far:NDK_PACKETMEM
  0c052b00    0c052b00    00004800   00000000    rw- .far:taskStackSection
80000000    80000000    01312d00   00000000    rw-
  80000000    80000000    01312d00   00000000    rw- .gBuffer
81312d00    81312d00    0012b320   0012b320    rw-
  81312d00    81312d00    0012b320   0012b320    rw- .far:WEBDATA
8143e020    8143e020    00000060   00000060    r-x
  8143e020    8143e020    00000060   00000060    r-x .text.1
8143e080    8143e080    000f4240   00000000    rw-
  8143e080    8143e080    000f4240   00000000    rw- systemHeap
815322c0    815322c0    000732fa   000732fa    r-x
  815322c0    815322c0    000627e0   000627e0    r-x .text.2
  81594aa0    81594aa0    00010b1a   00010b1a    r-- .const
815a55c0    815a55c0    00000040   00000040    rw-
  815a55c0    815a55c0    00000040   00000040    rw- .fardata.1
815a5600    815a5600    0000e6f4   0000e6f4    rw-
  815a5600    815a5600    0000e6f4   0000e6f4    rw- .far
815b3d00    815b3d00    000014e2   000014e2    rw-
  815b3d00    815b3d00    000014e2   000014e2    rw- .fardata.2
815b51e8    815b51e8    00001514   00001470    rw-
  815b51e8    815b51e8    00001470   00001470    rw- platform_lib
  815b6658    815b6658    000000a4   00000000    rw- .bss
815b66fc    815b66fc    000001d1   000001d1    rw-
  815b66fc    815b66fc    000001d1   000001d1    rw- .neardata
815b68d0    815b68d0    0000003c   0000003c    r--
  815b68d0    815b68d0    0000003c   0000003c    r-- .rodata
815b690c    815b690c    00031c20   00031c20    r--
  815b690c    815b690c    00031c20   00031c20    r-- .cinit


SECTION ALLOCATION MAP

 output                                  attributes/
section   page    origin      length       input sections
--------  ----  ----------  ----------   ----------------
.init_array 
*          0    80000000    00000000     UNINITIALIZED

.resmgr_memregion 
*          0    00820000    00004000     UNINITIALIZED
                  00820000    00004000     resourcemgr.obj (.resmgr_memregion)

.qmss      0    00824000    00002400     UNINITIALIZED
                  00824000    00002400     ti.drv.qmss.ae66 : qmss_drv.oe66 (.qmss)

.resmgr_pa 
*          0    00826400    00001488     UNINITIALIZED
                  00826400    00001488     resourcemgr.obj (.resmgr_pa)

.stack     0    00827888    00001000     UNINITIALIZED
                  00827888    00000008     boot.ae66 : boot.oe66 (.stack)
                  00827890    00000ff8     --HOLE--

.far:NDK_OBJMEM 
*          0    00828890    00000600     UNINITIALIZED
                  00828890    00000600     os.ae66 : ossys.oe66 (.far:NDK_OBJMEM)

.switch.1 
*          0    00828e90    00000170     
                  00828e90    00000070     ti.csl.ae66 : csl_chip.oe66 (.switch:CSL_chipReadReg)
                  00828f00    00000060     nettool.ae66 : telnetd.oe66 (.switch:telnet_netdata)
                  00828f60    0000003c     stk6_ppp_pppoe.ae66 : sock.oe66 (.switch:SockSet)
                  00828f9c    00000038                         : icmpin.oe66 (.switch:ICMPInput)
                  00828fd4    0000002c                         : sock6.oe66 (.switch:Sock6Set)

.vecs      0    00829000    00000200     
                  00829000    00000200     evm_pe66.oe66 (.vecs)

.cppi      0    00829200    00000480     UNINITIALIZED
                  00829200    00000480     ti.drv.cppi.ae66 : cppi_drv.oe66 (.cppi)

.switch.2 
*          0    00829680    000002a0     
                  00829680    00000038     stk6_ppp_pppoe.ae66 : icmpv6in.oe66 (.switch:ICMPv6RxPacket)
                  008296b8    00000034                         : rawethsock.oe66 (.switch:RawEthSockSet)
                  008296ec    00000030     nettool.ae66 : dnspkt.oe66 (.switch:DNSReadRecord)
                  0082971c    00000030                  : dnscomn.oe66 (.switch:DNSResolveQuery)
                  0082974c    0000002c     ti.drv.pa.ae66 : pa.oe66 (.switch:pa_conv_routing_info)
                  00829778    00000028     stk6_ppp_pppoe.ae66 : lcp.oe66 (.switch:lcpInput)
                  008297a0    00000020                         : tcp6prot.oe66 (.switch:TCP6PrSetOption)
                  008297c0    00000020                         : tcpprot.oe66 (.switch:TcpPrSetOption)
                  008297e0    00000020                         : ipcp.oe66 (.switch:ipcpInput)
                  00829800    0000001c                         : sock6int.oe66 (.switch:Sock6Notify)
                  0082981c    0000001c                         : sockint.oe66 (.switch:SockNotify)
                  00829838    0000001c     nettool.ae66 : dhcpsm.oe66 (.switch:dhcpState)
                  00829854    00000018     stk6_ppp_pppoe.ae66 : nimuppp.oe66 (.switch:pppEvent)
                  0082986c    00000014                         : icmpv6in.oe66 (.switch:ICMPv6RecvDstUnreachable)
                  00829880    00000014                         : lli6.oe66 (.switch:LLI6TimerCheck)
                  00829894    00000014                         : nimu.oe66 (.switch:NIMUIoctl)
                  008298a8    00000014     tasks.obj (.switch:dumpTask)
                  008298bc    00000014     stk6_ppp_pppoe.ae66 : lcp.oe66 (.switch:lcpSendCfg)
                  008298d0    00000010                         : ipv6_exthdrs.oe66 (.switch:IPv6ParseHopOptions)
                  008298e0    00000010                         : auth.oe66 (.switch:chapInput)
                  008298f0    00000010     nettool.ae66 : inetaddr.oe66 (.switch:inet_aton)
                  00829900    00000010     stk6_ppp_pppoe.ae66 : ipcp.oe66 (.switch:ipcpSendCfg)
                  00829910    00000010                         : nimupppoe.oe66 (.switch:pppoeCtrlMsg)

.nimu_eth_ll2 
*          0    00829980    00000318     
                  00829980    00000308     ti.transport.ndk.nimu.ae66 : nimu_eth.obj (.nimu_eth_ll2:uninit) [fill = 0]
                  00829c88    00000010                                : nimu_eth.obj (.nimu_eth_ll2:init)

.cio       0    00829c98    00000120     UNINITIALIZED
                  00829c98    00000120     rts6600_elf.lib : trgmsg.obj (.cio)

.resmgr_handles 
*          0    00829dc0    000000a0     UNINITIALIZED
                  00829dc0    000000a0     resourcemgr.obj (.resmgr_handles)

.far:NDK_PACKETMEM 
*          0    0c000000    00052b00     UNINITIALIZED
                  0c000000    00052b00     stk6_ppp_pppoe.ae66 : pbm_data.oe66 (.far:NDK_PACKETMEM)

.far:taskStackSection 
*          0    0c052b00    00004800     UNINITIALIZED
                  0c052b00    00004800     evm_pe66.oe66 (.far:taskStackSection)

xdc.meta   0    80000000    00000100     COPY SECTION
                  80000000    00000100     evm_pe66.oe66 (xdc.meta)

.gBuffer   0    80000000    01312d00     UNINITIALIZED
                  80000000    01312d00     webpage.obj (.gBuffer)

.far:WEBDATA 
*          0    81312d00    0012b320     
                  81312d00    000f9968     webserver.obj (.far:WEBDATA) [fill = 0]
                  8140c668    00030fcd     webpage.obj (.far:WEBDATA)
                  8143d635    00000003     --HOLE--
                  8143d638    000008c8     ndkbenchmark.obj (.far:WEBDATA) [fill = 0]
                  8143df00    00000120     statistics.obj (.far:WEBDATA) [fill = 0]

.text.1    0    8143e020    00000060     
                  8143e020    00000060     stk6_ppp_pppoe.ae66 : bind.oe66 (.text:BindFindByHost)

systemHeap 
*          0    8143e080    000f4240     UNINITIALIZED
                  8143e080    000f4240     evm_pe66.oe66 (systemHeap)

.text.2    0    815322c0    000627e0     
                  815322c0    00002520     ndkbenchmark.obj (.text)
                  815347e0    00001e40     ti.transport.ndk.nimu.ae66 : nimu_eth.obj (.text)
                  81536620    00001a40     ti.platform.evm6670l.ae66 : platform.obj (.text)
                  81538060    00001a00     stk6_ppp_pppoe.ae66 : tcpin.oe66 (.text:TcpInput)
                  81539a60    000019a0                         : tcp6in.oe66 (.text:TCP6Input)
                  8153b400    00001240                         : tcpout.oe66 (.text:TcpOutput)
                  8153c640    00001240     information.obj (.text)
                  8153d880    00001180     stk6_ppp_pppoe.ae66 : tcp6out.oe66 (.text:TCP6Output)
                  8153ea00    00001080     ndkloopback.obj (.text)
                  8153fa80    00000c60     webserver.obj (.text)
                  815406e0    00000b80     stk6_ppp_pppoe.ae66 : ipin.oe66 (.text:IPRxPacket)
                  81541260    00000b80     hpdspua.obj (.text)
                  81541de0    00000aa0     stk6_ppp_pppoe.ae66 : md5.oe66 (.text:MD5Transform)
                  81542880    00000aa0     resourcemgr.obj (.text)
                  81543320    000009c0     stk6_ppp_pppoe.ae66 : ipout.oe66 (.text:IPTxPacket)
                  81543ce0    000009a0                         : lcp.oe66 (.text:lcpInput)
                  81544680    000009a0     ti.targets.rts6000.ae66 : System.oe66 (.text:xdc_runtime_System_doPrint__I)
                  81545020    00000980     ti.platform.evm6670l.ae66 : evmc6670.obj (.text)
                  815459a0    00000920     nettool.ae66 : dnscomn.oe66 (.text:DNSResolveByName)
                  815462c0    000008a0                  : httpclie.oe66 (.text:httpClientProcess)
                  81546b60    00000840     ti.platform.evm6670l.ae66 : evm66x_nand.obj (.text)
                  815473a0    000007e0     ti.drv.qmss.ae66 : qmss_drv.oe66 (.text:Qmss_insertMemoryRegion)
                  81547b80    000007e0     stk6_ppp_pppoe.ae66 : ipcp.oe66 (.text:ipcpInput)
                  81548360    000007c0     nettool.ae66 : dnscomn.oe66 (.text:DNSResolveByNS)
                  81548b20    000007c0                  : httpsend.oe66 (.text:SetContentType)
                  815492e0    000007c0     stk6_ppp_pppoe.ae66 : sock.oe66 (.text:SockSet)
                  81549aa0    000007a0                         : fileuser.oe66 (.text:fdPoll)
                  8154a240    000007a0     ti.platform.evm6670l.ae66 : evmc66x_i2c_eeprom.obj (.text)
                  8154a9e0    00000780     sysbios.lib : BIOS.obj (.text:ti_sysbios_family_c64p_Exception_handler__I)
                  8154b160    00000720     ti.drv.pa.ae66 : pa.oe66 (.text:Pa_addMac)
                  8154b880    000006e0     flash.obj (.text)
                  8154bf60    000006c0     nettool.ae66 : telnetd.oe66 (.text:telnet_netdata)
                  8154c620    00000680     stk6_ppp_pppoe.ae66 : icmpv6_ndisc.oe66 (.text:ICMPv6RecvRA)
                  8154cca0    00000660     ti.drv.cppi.ae66 : cppi_drv.oe66 (.text:Cppi_configureRxFlow)
                  8154d300    00000660     nettool.ae66 : dnscomn.oe66 (.text:DNSResolveByAddr)
                  8154d960    00000660     sysbios.lib : BIOS.obj (.text:ti_sysbios_heaps_HeapMem_free__E)
                  8154dfc0    00000620     stk6_ppp_pppoe.ae66 : route6.oe66 (.text:Rt6Create)
                  8154e5e0    00000620     sysbios.lib : BIOS.obj (.text:ti_sysbios_heaps_HeapMem_alloc__E)
                  8154ec00    000005e0     nettool.ae66 : dnsclnt.oe66 (.text:DNSResolve)
                  8154f1e0    000005c0     stk6_ppp_pppoe.ae66 : ipfrag.oe66 (.text:IPReasm)
                  8154f7a0    000005c0     rts6600_elf.lib : divd.obj (.text:__c6xabi_divd)
                  8154fd60    000005c0                     : _printfi.obj (.text:_getarg_diouxp)
                  81550320    000005c0     sysbios.lib : BIOS.obj (.text:ti_sysbios_timers_timer64_Timer_Module_startup__F)
                  815508e0    000005a0     stk6_ppp_pppoe.ae66 : icmpin.oe66 (.text:ICMPInput)
                  81550e80    00000580                         : nimuppp.oe66 (.text:pppEvent)
                  81551400    00000560                         : ipv6.oe66 (.text:IPv6IPAddressToString)
                  81551960    00000520                         : sock.oe66 (.text:SockNew)
                  81551e80    00000500     sysbios.lib : BIOS.obj (.text:ti_sysbios_knl_Task_Instance_finalize__F)
                  81552380    000004e0     stk6_ppp_pppoe.ae66 : udp.oe66 (.text:UdpInput)
                  81552860    000004e0                         : nimupppoe.oe66 (.text:pppoeInputS)
                  81552d40    000004e0     statistics.obj (.text)
                  81553220    000004c0     ti.drv.cppi.ae66 : cppi_drv.oe66 (.text:Cppi_txChannelOpen)
                  815536e0    000004c0     stk6_ppp_pppoe.ae66 : sock6.oe66 (.text:Sock6Connect)
                  81553ba0    000004c0                         : sock6.oe66 (.text:Sock6Set)
                  81554060    000004c0     flashread.obj (.text)
                  81554520    000004c0     webpage.obj (.text)
                  815549e0    000004a0     stk6_ppp_pppoe.ae66 : bind6.oe66 (.text:Bind6New)
                  81554e80    000004a0                         : lliin.oe66 (.text:LLIRxPacket)
                  81555320    000004a0                         : sock6.oe66 (.text:Sock6Recv)
                  815557c0    000004a0                         : sock.oe66 (.text:SockRecv)
                  81555c60    00000460     rts6600_elf.lib : _printfi.obj (.text:_printfi)
                  815560c0    00000460                     : _printfi.obj (.text:_setfield)
                  81556520    00000460     stk6_ppp_pppoe.ae66 : nimuppp.oe66 (.text:pppNew)
                  81556980    00000460     ti.platform.evm6670l.ae66 : evmc66x_spi.obj (.text)
                  81556de0    00000440     ti.drv.cppi.ae66 : cppi_drv.oe66 (.text:Cppi_rxChannelOpen)
                  81557220    00000440     stk6_ppp_pppoe.ae66 : sock6.oe66 (.text:Sock6New)
                  81557660    00000440                         : auth.oe66 (.text:chapInput)
                  81557aa0    00000440                         : fileuser.oe66 (.text:fdSelect)
                  81557ee0    00000440                         : nimupppoe.oe66 (.text:pppoeInputC)
                  81558320    00000420     nettool.ae66 : daemon.oe66 (.text:daemon)
                  81558740    00000420     ti.drv.pa.ae66 : pa.oe66 (.text:pa_conv_routing_info)
                  81558b60    00000400     stk6_ppp_pppoe.ae66 : sock6.oe66 (.text:Sock6Send)
                  81558f60    00000400     os.ae66 : efs.oe66 (.text:efs_filecheck)
                  81559360    00000400     i2cread.obj (.text)
                  81559760    00000400     sysbios.lib : BIOS.obj (.text:ti_sysbios_knl_Semaphore_pend__E)
                  81559b60    000003e0     stk6_ppp_pppoe.ae66 : ipv6_frag.oe66 (.text:IPv6TxFragPacket)
                  81559f40    000003e0     diagnostic.obj (.text)
                  8155a320    000003e0     diagpage.obj (.text)
                  8155a700    000003e0     flashwrite.obj (.text)
                  8155aae0    000003c0     ti.drv.cppi.ae66 : cppi_desc.oe66 (.text:Cppi_initDescriptor)
                  8155aea0    000003c0     stk6_ppp_pppoe.ae66 : ipv6out.oe66 (.text:IPv6TxPacket)
                  8155b260    000003c0                         : lli6.oe66 (.text:LLI6TimerCheck)
                  8155b620    000003c0                         : sock.oe66 (.text:SockSend)
                  8155b9e0    000003c0                         : tcp6.oe66 (.text:TCP6TimeoutCheck)
                  8155bda0    000003c0                         : tcp.oe66 (.text:TcpTimeoutCheck)
                  8155c160    000003c0     rts6600_elf.lib : strtol.obj (.text:strtol)
                  8155c520    000003c0     ti.platform.evm6670l.ae66 : evmc66x_nor.obj (.text)
                  8155c8e0    000003c0     sysbios.lib : BIOS.obj (.text:ti_sysbios_knl_Task_Instance_init__F)
                  8155cca0    000003c0                 : BIOS.obj (.text:ti_sysbios_knl_Task_setPri__E)
                  8155d060    000003a0     stk6_ppp_pppoe.ae66 : nimu.oe66 (.text:NIMUIoctl)
                  8155d400    000003a0                         : route.oe66 (.text:RtCreate)
                  8155d7a0    000003a0                         : sb.oe66 (.text:SBRead)
                  8155db40    000003a0     os.ae66 : mem.oe66 (.text:_mmCheck)
                  8155dee0    000003a0     rts6600_elf.lib : fputs.obj (.text:fputs)
                  8155e280    000003a0     stk6_ppp_pppoe.ae66 : auth.oe66 (.text:papInput)
                  8155e620    00000380                         : icmpv6in.oe66 (.text:ICMPv6RxPacket)
                  8155e9a0    00000380                         : igmp.oe66 (.text:IGMPInput)
                  8155ed20    00000380                         : sock6int.oe66 (.text:Sock6Notify)
                  8155f0a0    00000380                         : sock.oe66 (.text:SockConnect)
                  8155f420    00000380                         : sockint.oe66 (.text:SockNotify)
                  8155f7a0    00000380     nettool.ae66 : dhcppkt.oe66 (.text:dhcpPacketProcess)
                  8155fb20    00000380     ti.platform.evm6670l.ae66 : evmc66x_fpga.obj (.text)
                  8155fea0    00000360     stk6_ppp_pppoe.ae66 : icmpv6out.oe66 (.text:ICMPv6SendParameterProblem)
                  81560200    00000360                         : ipv6_frag.oe66 (.text:IPv6FragReasm)
                  81560560    00000360                         : lliout.oe66 (.text:LLITxIpPacket)
                  815608c0    00000360     ti.platform.evm6670l.ae66 : evmc66x_ecc.obj (.text)
                  81560c20    00000340     ti.drv.pa.ae66 : painit.oe66 (.text:Pa_create)
                  81560f60    00000340     ti.drv.qmss.ae66 : qmss_drv.oe66 (.text:Qmss_init)
                  815612a0    00000340     os.ae66 : mem.oe66 (.text:mmAlloc)
                  815615e0    00000340     stk6_ppp_pppoe.ae66 : nimupppoe.oe66 (.text:pppoeSI)
                  81561920    00000320     nettool.ae66 : config.oe66 (.text:CfgAddEntry)
                  81561c40    00000320                  : dnspkt.oe66 (.text:DNSReadRecord)
                  81561f60    00000320     stk6_ppp_pppoe.ae66 : icmpv6_ndisc.oe66 (.text:ICMPv6RecvRedirect)
                  81562280    00000320                         : nimupppoe.oe66 (.text:SendServerMsg)
                  815625a0    00000320     rts6600_elf.lib : _printfi.obj (.text:_pproc_fge)
                  815628c0    00000320     nettool.ae66 : telnetd.oe66 (.text:telnet_engine)
                  81562be0    00000300     stk6_ppp_pppoe.ae66 : icmpv6_ndisc.oe66 (.text:ICMPv6RecvNS)
                  81562ee0    00000300                         : icmpv6out.oe66 (.text:ICMPv6SendDstUnreachable)
                  815631e0    00000300                         : icmpv6out.oe66 (.text:ICMPv6SendTimeExceeded)
                  815634e0    00000300     netctrl.ae66 : netctrl.oe66 (.text:NetScheduler)
                  815637e0    00000300     stk6_ppp_pppoe.ae66 : sock6pcb.oe66 (.text:Sock6PcbBind)
                  81563ae0    00000300                         : udp6.oe66 (.text:Udp6Input)
                  81563de0    00000300     nettool.ae66 : inetaddr.oe66 (.text:inet_aton)
                  815640e0    00000300     ti.platform.evm6670l.ae66 : evmc6670_phy.obj (.text)
                  815643e0    00000300     sysbios.lib : BIOS.obj (.text:ti_sysbios_family_c64p_Hwi_dispatchC__I)
                  815646e0    000002e0     stk6_ppp_pppoe.ae66 : ipv6_frag.oe66 (.text:IPv6FragQEnqueueFrag)
                  815649c0    000002e0     ti.drv.pa.ae66 : pa.oe66 (.text:Pa_forwardResult)
                  81564ca0    000002e0     stk6_ppp_pppoe.ae66 : route6.oe66 (.text:Rt6Find)
                  81564f80    000002e0                         : nimupppoe.oe66 (.text:SendClientMsg)
                  81565260    000002e0                         : udp.oe66 (.text:UdpOutput)
                  81565540    000002e0     rts6600_elf.lib : _printfi.obj (.text:_pproc_fwp)
                  81565820    000002e0     sysbios.lib : BIOS.obj (.text:ti_sysbios_knl_Task_Module_startup__F)
                  81565b00    000002c0     stk6_ppp_pppoe.ae66 : bind.oe66 (.text:BindNew)
                  81565dc0    000002c0     nettool.ae66 : dnspkt.oe66 (.text:DNSGetReply)
                  81566080    000002c0                  : dnscomn.oe66 (.text:DNSResolveExternal)
                  81566340    000002c0     stk6_ppp_pppoe.ae66 : sb6.oe66 (.text:SB6Read)
                  81566600    000002c0                         : sock6pcb.oe66 (.text:Sock6PcbResolve)
                  815668c0    000002c0                         : udp6.oe66 (.text:Udp6Output)
                  81566b80    000002c0                         : nimuppp.oe66 (.text:pppInput)
                  81566e40    000002a0                         : ipv6_exthdrs.oe66 (.text:IPv6ParseExtnHeaders)
                  815670e0    000002a0                         : node.oe66 (.text:NodeAdd)
                  81567380    000002a0                         : route6.oe66 (.text:Rt6Free)
                  81567620    000002a0                         : rtable.oe66 (.text:RtFind)
                  815678c0    000002a0                         : sock6pcb.oe66 (.text:Sock6PcbFind)
                  81567b60    000002a0                         : sock.oe66 (.text:SockClose)
                  81567e00    000002a0                         : tcp6prot.oe66 (.text:TCP6PrSetOption)
                  815680a0    000002a0                         : tcpprot.oe66 (.text:TcpPrSetOption)
                  81568340    000002a0     rts6600_elf.lib : _printfi.obj (.text:fcvt)
                  815685e0    000002a0     tasks.obj (.text)
                  81568880    000002a0     sysbios.lib : BIOS.obj (.text:ti_sysbios_knl_Clock_workFunc__E)
                  81568b20    000002a0                 : BIOS.obj (.text:ti_sysbios_knl_Task_sleep__E)
                  81568dc0    00000280     nettool.ae66 : dhcpmain.oe66 (.text:DHCPOpen)
                  81569040    00000280     stk6_ppp_pppoe.ae66 : icmp.oe66 (.text:ICMPGenPacket)
                  815692c0    00000280                         : icmpv6in.oe66 (.text:ICMPv6RecvEchoRequest)
                  81569540    00000280                         : lli6.oe66 (.text:LLI6NeighUnreachStateMachine)
                  815697c0    00000280                         : sockpcb.oe66 (.text:SockPcbResolve)
                  81569a40    00000280                         : sock.oe66 (.text:SockRecvNC)
                  81569cc0    00000280                         : tcp6out.oe66 (.text:TCP6GenPacket)
                  81569f40    00000280     sysbios.lib : BIOS.obj (.text:deviceConfig$44)
                  8156a1c0    00000280     rts6600_elf.lib : _printfi.obj (.text:ecvt)
                  8156a440    00000280     stk6_ppp_pppoe.ae66 : ipcp.oe66 (.text:ipcpSendCfg)
                  8156a6c0    00000280                         : lcp.oe66 (.text:lcpSendCfg)
                  8156a940    00000280     ti.platform.evm6670l.ae66 : evmc66x_gpio.obj (.text)
                  8156abc0    00000280     sysbios.lib : BIOS.obj (.text:ti_sysbios_knl_Clock_Instance_init__F)
                  8156ae40    00000280                 : BIOS.obj (.text:ti_sysbios_knl_Task_exit__E)
                  8156b0c0    00000280     ti.targets.rts6000.ae66 : Core-mem.oe66 (.text:xdc_runtime_Core_createObject__I)
                  8156b340    00000280                             : Error.oe66 (.text:xdc_runtime_Error_raiseX__F)
                  8156b5c0    00000260     stk6_ppp_pppoe.ae66 : icmpv6_ndisc.oe66 (.text:ICMPv6SendNA)
                  8156b820    00000260                         : icmpv6_ndisc.oe66 (.text:ICMPv6SendNS)
                  8156ba80    00000260                         : lli6.oe66 (.text:LLI6TxIPPacket)
                  8156bce0    00000260                         : nimu.oe66 (.text:NIMUReceivePacket)
                  8156bf40    00000260                         : rawethsock.oe66 (.text:RawEthSockSet)
                  8156c1a0    00000260                         : sb6.oe66 (.text:SB6Write)
                  8156c400    00000260                         : sb.oe66 (.text:SBWrite)
                  8156c660    00000260                         : sock6.oe66 (.text:Sock6Close)
                  8156c8c0    00000260                         : sockpcb.oe66 (.text:SockPcbBind)
                  8156cb20    00000260     nettool.ae66 : httppars.oe66 (.text:httpParseRecv)
                  8156cd80    00000260     ti.targets.rts6000.ae66 : Startup.oe66 (.text:xdc_runtime_Startup_startMods__I)
                  8156cfe0    00000260     evm_pe66.oe66 (.text:xdc_runtime_System_printfExtend__I)
                  8156d240    00000240     ti.drv.cppi.ae66 : cppi_drv.oe66 (.text:Cppi_open)
                  8156d480    00000240     nettool.ae66 : dnspkt.oe66 (.text:DNSWriteRecord)
                  8156d6c0    00000240                  : daemon.oe66 (.text:DaemonNew)
                  8156d900    00000240     ti.drv.pa.ae66 : pa.oe66 (.text:Pa_resetControl)
                  8156db40    00000240     stk6_ppp_pppoe.ae66 : pipe.oe66 (.text:PipeRecv)
                  8156dd80    00000240                         : raw.oe66 (.text:RawInput)
                  8156dfc0    00000240     rts6600_elf.lib : imath64.obj (.text:__c6xabi_divull)
                  8156e200    00000240                     : _printfi.obj (.text:_pconv_e)
                  8156e440    00000240                     : _printfi.obj (.text:_pproc_diouxp)
                  8156e680    00000240     nettool.ae66 : dhcpsm.oe66 (.text:dhcpIPAdd)
                  8156e8c0    00000240                  : dhcpsm.oe66 (.text:dhcpState)
                  8156eb00    00000240     platform_osal.obj (.text)
                  8156ed40    00000240     sysbios.lib : BIOS.obj (.text:ti_sysbios_family_c64p_Exception_internalHandler__I)
                  8156ef80    00000240                 : BIOS.obj (.text:ti_sysbios_knl_Semaphore_post__E)
                  8156f1c0    00000240     ti.targets.rts6000.ae66 : LoggerBuf.oe66 (.text:xdc_runtime_LoggerBuf_write8__F)
                  8156f400    00000220     stk6_ppp_pppoe.ae66 : bind6.oe66 (.text:Bind6RunDAD)
                  8156f620    00000220     nettool.ae66 : dnspkt.oe66 (.text:DNSWriteName)
                  8156f840    00000220     stk6_ppp_pppoe.ae66 : icmpv6_ndisc.oe66 (.text:ICMPv6RecvNA)
                  8156fa60    00000220                         : igmp.oe66 (.text:IGMPJoinHostGroup)
                  8156fc80    00000220                         : ipv6in.oe66 (.text:IPv6RxPacket)
                  8156fea0    00000220                         : rawethsock.oe66 (.text:RawEthSockNew)
                  815700c0    00000220                         : sockpcb.oe66 (.text:SockPcbFind)
                  815702e0    00000220     rts6600_elf.lib : _printfi.obj (.text:_pproc_str)
                  81570500    00000220     nettool.ae66 : dhcppkt.oe66 (.text:dhcpVerifyMessage)
                  81570720    00000220     rts6600_elf.lib : fputc.obj (.text:fputc)
                  81570940    00000220     nettool.ae66 : httpclie.oe66 (.text:httpGetAuthParams)
                  81570b60    00000220     sysbios.lib : BIOS.obj (.text:ti_sysbios_knl_Swi_run__I)
                  81570d80    00000220                 : BIOS.obj (.text:ti_sysbios_knl_Task_schedule__I)
                  81570fa0    00000220                 : BIOS.obj (.text:ti_sysbios_knl_Task_startup__E)
                  815711c0    00000200     stk6_ppp_pppoe.ae66 : ipv6_frag.oe66 (.text:IPv6ParseFragHdr)
                  815713c0    00000200                         : lli6.oe66 (.text:LLI6New)
                  815715c0    00000200     ti.drv.qmss.ae66 : qmss_drv.oe66 (.text:Qmss_internalQueueOpen)
                  815717c0    00000200                      : qmss_acc.oe66 (.text:Qmss_programAccumulator)
                  815719c0    00000200     stk6_ppp_pppoe.ae66 : rtc.oe66 (.text:RTCReport)
                  81571bc0    00000200                         : raw6.oe66 (.text:Raw6Output)
                  81571dc0    00000200     rts6600_elf.lib : _printfi.obj (.text:_pconv_g)
                  81571fc0    00000200     sysbios.lib : c64p_Hwi_disp_always.obj (.text:_ti_sysbios_family_c64p_Hwi_dispatchAlways)
                  815721c0    00000200     stk6_ppp_pppoe.ae66 : socket.oe66 (.text:accept)
                  815723c0    00000200     sysbios.lib : BIOS.obj (.text:block$56)
                  815725c0    00000200     ti.drv.cppi.ae66 : cppi_heap.oe66 (.text:cppi_internal_heap_add)
                  815727c0    00000200     stk6_ppp_pppoe.ae66 : nimupppoe.oe66 (.text:pppoeCtrlMsg)
                  815729c0    00000200     rts6600_elf.lib : setvbuf.obj (.text:setvbuf)
                  81572bc0    000001e0     nettool.ae66 : dnspkt.oe66 (.text:DNSReadName)
                  81572da0    000001e0     stk6_ppp_pppoe.ae66 : igmp.oe66 (.text:IGMPSendReply)
                  81572f80    000001e0                         : route6.oe66 (.text:Rt6Modify)
                  81573160    000001e0                         : sock6pcb.oe66 (.text:Sock6PcbFindRaw)
                  81573340    000001e0                         : tcpout.oe66 (.text:TcpGenPacket)
                  81573520    000001e0                         : auth.oe66 (.text:chapSendMsg)
                  81573700    000001e0     nettool.ae66 : dhcpsock.oe66 (.text:dhcpSocketOpen)
                  815738e0    000001e0     stk6_ppp_pppoe.ae66 : socket.oe66 (.text:recvnc)
                  81573ac0    000001e0                         : socket.oe66 (.text:sendto)
                  81573ca0    000001e0     sysbios.lib : BIOS.obj (.text:ti_sysbios_knl_Task_postInit__I)
                  81573e80    000001e0                 : BIOS.obj (.text:ti_sysbios_timers_timer64_Timer_getFreq__E)
                  81574060    000001c0     nettool.ae66 : config.oe66 (.text:CfgExecute)
                  81574220    000001c0     ti.drv.cppi.ae66 : cppi_drv.oe66 (.text:Cppi_channelClose)
                  815743e0    000001c0                      : cppi_drv.oe66 (.text:Cppi_initCfg)
                  815745a0    000001c0     stk6_ppp_pppoe.ae66 : ip.oe66 (.text:IPGetRoute)
                  81574760    000001c0                         : ipv6_exthdrs.oe66 (.text:IPv6ParseHopOptions)
                  81574920    000001c0                         : lliout.oe66 (.text:LLIGenArpPacket)
                  81574ae0    000001c0     ti.drv.qmss.ae66 : qmss_drv.oe66 (.text:Qmss_internaldownloadFirmware)
                  81574ca0    000001c0     netctrl.ae66 : netsrv.oe66 (.text:SPIpNet)
                  81574e60    000001c0     stk6_ppp_pppoe.ae66 : tcptime.oe66 (.text:TcpTimeoutRexmt)
                  81575020    000001c0                         : lli.oe66 (.text:_LLITimeoutCheck)
                  815751e0    000001c0     rts6600_elf.lib : _printfi.obj (.text:_mcpy)
                  815753a0    000001c0     nettool.ae66 : dhcpbild.oe66 (.text:dhcpBuildHeader)
                  81575560    000001c0     stk6_ppp_pppoe.ae66 : fileuser.oe66 (.text:fdClose)
                  81575720    000001c0     flasherase.obj (.text)
                  815758e0    000001c0     stk6_ppp_pppoe.ae66 : socket.oe66 (.text:recvncfrom)
                  81575aa0    000001c0     ti.platform.evm6670l.ae66 : evmc66x_uart.obj (.text)
                  81575c60    000001c0     sysbios.lib : BIOS.obj (.text:ti_sysbios_knl_Task_checkStacks__E)
                  81575e20    000001c0                 : BIOS.obj (.text:ti_sysbios_timers_timer64_Timer_setPeriodMicroSecs__E)
                  81575fe0    000001a0     stk6_ppp_pppoe.ae66 : bind6.oe66 (.text:Bind6Msg)
                  81576180    000001a0     nettool.ae66 : config.oe66 (.text:CfgRemoveEntry)
                  81576320    000001a0                  : dnscomn.oe66 (.text:DNSResolveQuery)
                  815764c0    000001a0     rts6600_elf.lib : trgdrv.obj (.text:HOSTrename)
                  81576660    000001a0     stk6_ppp_pppoe.ae66 : icmpin.oe66 (.text:ICMPRevSrcRoute)
                  81576800    000001a0                         : ipv6_frag.oe66 (.text:IPv6FragMsg)
                  815769a0    000001a0                         : ipv6_exthdrs.oe66 (.text:IPv6ParseRoutingHdr)
                  81576b40    000001a0     netctrl.ae66 : netctrl.oe66 (.text:NC_NetStart)
                  81576ce0    000001a0     stk6_ppp_pppoe.ae66 : node.oe66 (.text:NodeTreeFree)
                  81576e80    000001a0     ti.drv.pa.ae66 : pa.oe66 (.text:Pa_downloadImage)
                  81577020    000001a0     stk6_ppp_pppoe.ae66 : raw6.oe66 (.text:Raw6Input)
                  815771c0    000001a0                         : route6.oe66 (.text:Route6LifetimeMgmt)
                  81577360    000001a0                         : sockint.oe66 (.text:SockCreatePacket)
                  81577500    000001a0     nettool.ae66 : dhcpsm.oe66 (.text:StateRenewRebind)
                  815776a0    000001a0     stk6_ppp_pppoe.ae66 : tcp6time.oe66 (.text:TCP6TimeoutRexmt)
                  81577840    000001a0     rts6600_elf.lib : imath40.obj (.text:__c6xabi_divul)
                  815779e0    000001a0     cgi.ae66 : cgiparse.oe66 (.text:cgiParseVars)
                  81577b80    000001a0     nettool.ae66 : dhcptags.oe66 (.text:dhcpBuildOptions)
                  81577d20    000001a0     stk6_ppp_pppoe.ae66 : socket.oe66 (.text:getpeername)
                  81577ec0    000001a0                         : socket.oe66 (.text:getsockname)
                  81578060    000001a0     nettool.ae66 : telnetd.oe66 (.text:telnet_termdata)
                  81578200    000001a0     sysbios.lib : BIOS.obj (.text:ti_sysbios_gates_GateMutex_enter__E)
                  815783a0    000001a0                 : BIOS.obj (.text:ti_sysbios_timers_timer64_Timer_start__E)
                  81578540    000001a0     ti.targets.rts6000.ae66 : LoggerBuf.oe66 (.text:xdc_runtime_LoggerBuf_write4__F)
                  815786e0    00000180     stk6_ppp_pppoe.ae66 : bind6.oe66 (.text:Bind6GetGlobalAddress)
                  81578860    00000180                         : igmp.oe66 (.text:IGMPMsg)
                  815789e0    00000180                         : lli.oe66 (.text:LLIAddStaticEntry)
                  81578b60    00000180                         : nimu.oe66 (.text:NIMURegister)
                  81578ce0    00000180     netctrl.ae66 : netsrv.oe66 (.text:ServiceScan)
                  81578e60    00000180                  : netsrv.oe66 (.text:ServiceSpawn)
                  81578fe0    00000180     nettool.ae66 : dhcpsm.oe66 (.text:StateBound)
                  81579160    00000180     rts6600_elf.lib : copy_decompress_rle.obj (.text:__TI_decompress_rle_core)
                  815792e0    00000180     stk6_ppp_pppoe.ae66 : socket.oe66 (.text:bind)
                  81579460    00000180                         : socket.oe66 (.text:connect)
                  815795e0    00000180     nettool.ae66 : dhcpbild.oe66 (.text:dhcpBuildRequest)
                  81579760    00000180     os.ae66 : task.oe66 (.text:llEnter)
                  815798e0    00000180     stk6_ppp_pppoe.ae66 : auth.oe66 (.text:papSendCfg)
                  81579a60    00000180     sysbios.lib : c64p_Exception_asm.obj (.text)
                  81579be0    00000180                 : BIOS.obj (.text:ti_sysbios_heaps_HeapMem_Instance_init__F)
                  81579d60    00000180                 : BIOS.obj (.text:ti_sysbios_knl_Swi_schedule__I)
                  81579ee0    00000180                 : BIOS.obj (.text:ti_sysbios_knl_Task_unblockI__E)
                  8157a060    00000180     ti.targets.rts6000.ae66 : Text.oe66 (.text:xdc_runtime_Text_putSite__F)
                  8157a1e0    00000160     nettool.ae66 : config.oe66 (.text:CfgGetEntry)
                  8157a340    00000160                  : config.oe66 (.text:CfgGetNextEntry)
                  8157a4a0    00000160     os.ae66 : ossys.oe66 (.text:DbgPrintf)
                  8157a600    00000160     stk6_ppp_pppoe.ae66 : igmp.oe66 (.text:IGMPDoMCast)
                  8157a760    00000160                         : nimu.oe66 (.text:NIMUIoctlSpecialCmd)
                  8157a8c0    00000160                         : pbm.oe66 (.text:PBM_free)
                  8157aa20    00000160                         : nimuppp.oe66 (.text:PPPStop)
                  8157ab80    00000160                         : pipe.oe66 (.text:PipeSend)
                  8157ace0    00000160                         : raw.oe66 (.text:RawOutput)
                  8157ae40    00000160                         : rtable.oe66 (.text:RtTimeoutCheck)
                  8157afa0    00000160                         : rtable.oe66 (.text:RtWalkNext)
                  8157b100    00000160     netctrl.ae66 : netsrv.oe66 (.text:SPRoute)
                  8157b260    00000160     stk6_ppp_pppoe.ae66 : sock6.oe66 (.text:Sock6Check)
                  8157b3c0    00000160                         : sock6int.oe66 (.text:Sock6CreatePacket)
                  8157b520    00000160                         : sock6pcb.oe66 (.text:Sock6PcbConnect)
                  8157b680    00000160                         : sock.oe66 (.text:SockCheck)
                  8157b7e0    00000160                         : sockpcb.oe66 (.text:SockGetPcb)
                  8157b940    00000160                         : sockpcb.oe66 (.text:SockPcbConnect)
                  8157baa0    00000160     nettool.ae66 : dhcpsm.oe66 (.text:StateRequesting)
                  8157bc00    00000160     stk6_ppp_pppoe.ae66 : tcp6time.oe66 (.text:TCP6TimeoutKeep)
                  8157bd60    00000160                         : tcptime.oe66 (.text:TcpTimeoutKeep)
                  8157bec0    00000160                         : auth.oe66 (.text:authInit)
                  8157c020    00000160     nettool.ae66 : httpclie.oe66 (.text:httpExtractTag)
                  8157c180    00000160                  : httpsend.oe66 (.text:httpSendErrorHTML)
                  8157c2e0    00000160     stk6_ppp_pppoe.ae66 : socket.oe66 (.text:setsockopt)
                  8157c440    00000160     nettool.ae66 : telnetd.oe66 (.text:telnetClientProcess)
                  8157c5a0    00000140     stk6_ppp_pppoe.ae66 : bind6.oe66 (.text:Bind6DADCheck)
                  8157c6e0    00000140                         : bind6.oe66 (.text:Bind6Free)
                  8157c820    00000140     ti.csl.ae66 : csl_chip.oe66 (.text:CSL_chipReadReg)
                  8157c960    00000140     stk6_ppp_pppoe.ae66 : exec.oe66 (.text:ExecOpen)
                  8157caa0    00000140                         : icmp.oe66 (.text:ICMPSendRtAdv)
                  8157cbe0    00000140                         : igmp.oe66 (.text:IGMPJoin)
                  8157cd20    00000140                         : ipv6.oe66 (.text:IPv6DisplayIPAddress)
                  8157ce60    00000140                         : lli6.oe66 (.text:LLI6Find)
                  8157cfa0    00000140                         : lli.oe66 (.text:LLINew)
                  8157d0e0    00000140                         : node.oe66 (.text:NodeFind)
                  8157d220    00000140                         : node.oe66 (.text:NodeWalk)
                  8157d360    00000140                         : pbm.oe66 (.text:PBM_alloc)
                  8157d4a0    00000140                         : rtable.oe66 (.text:RtFlush)
                  8157d5e0    00000140                         : sb6.oe66 (.text:SB6New)
                  8157d720    00000140     netctrl.ae66 : netsrv.oe66 (.text:ServiceKill)
                  8157d860    00000140     stk6_ppp_pppoe.ae66 : sock6.oe66 (.text:Sock6Accept)
                  8157d9a0    00000140                         : sock6.oe66 (.text:Sock6Listen)
                  8157dae0    00000140                         : sock.oe66 (.text:SockAccept)
                  8157dc20    00000140                         : sock.oe66 (.text:SockListen)
                  8157dd60    00000140                         : sockpcb.oe66 (.text:SockPcbCtlError)
                  8157dea0    00000140     boot.ae66 : autoinit.oe66 (.text:_auto_init_elf)
                  8157dfe0    00000140     rts6600_elf.lib : _printfi.obj (.text:_pproc_fflags)
                  8157e120    00000140     stk6_ppp_pppoe.ae66 : auth.oe66 (.text:authGetPassword)
                  8157e260    00000140     nettool.ae66 : dhcptags.oe66 (.text:dhcpDecodeType)
                  8157e3a0    00000140     rts6600_elf.lib : lowlev.obj (.text:getdevice)
                  8157e4e0    00000140     nettool.ae66 : httpsend.oe66 (.text:httpAuthenticationReq)
                  8157e620    00000140     os.ae66 : mem.oe66 (.text:mmCopy)
                  8157e760    00000140     stk6_ppp_pppoe.ae66 : socket.oe66 (.text:recv)
                  8157e8a0    00000140                         : socket.oe66 (.text:send)
                  8157e9e0    00000140     sysbios.lib : BIOS.obj (.text:ti_sysbios_family_c64p_Hwi_Module_startup__F)
                  8157eb20    00000140                 : BIOS.obj (.text:ti_sysbios_family_c66_Cache_Module_startup__F)
                  8157ec60    00000140                 : BIOS.obj (.text:ti_sysbios_knl_Clock_Instance_finalize__F)
                  8157eda0    00000140                 : BIOS.obj (.text:ti_sysbios_knl_Semaphore_Instance_init__F)
                  8157eee0    00000140                 : BIOS.obj (.text:ti_sysbios_knl_Swi_post__E)
                  8157f020    00000140                 : BIOS.obj (.text:ti_sysbios_knl_Task_blockI__E)
                  8157f160    00000120     stk6_ppp_pppoe.ae66 : bind6.oe66 (.text:Bind6LifetimeMgmt)
                  8157f280    00000120                         : bind.oe66 (.text:BindFree)
                  8157f3a0    00000120     nettool.ae66 : config.oe66 (.text:CfgFree)
                  8157f4c0    00000120                  : dnscomn.oe66 (.text:DNSReplyFree)
                  8157f5e0    00000120                  : daemon.oe66 (.text:DaemonFree)
                  8157f700    00000120     stk6_ppp_pppoe.ae66 : file.oe66 (.text:FdWaitEvent)
                  8157f820    00000120                         : igmp.oe66 (.text:IGMPLeaveHostGroup)
                  8157f940    00000120                         : ip.oe66 (.text:IPMsg)
                  8157fa60    00000120                         : ipin.oe66 (.text:IPRouteIP)
                  8157fb80    00000120                         : ipv6_frag.oe66 (.text:IPv6CreateFragQ)
                  8157fca0    00000120                         : ipv6.oe66 (.text:IPv6Init)
                  8157fdc0    00000120                         : icmpv6out.oe66 (.text:IsICMPv6ErrorPkt)
                  8157fee0    00000120                         : md5.oe66 (.text:MD5Update)
                  81580000    00000120                         : mld.oe66 (.text:MLDJoinGroup)
                  81580120    00000120     netctrl.ae66 : netctrl.oe66 (.text:NC_SystemOpen)
                  81580240    00000120     stk6_ppp_pppoe.ae66 : nimu.oe66 (.text:NIMUAddEthernetHeader)
                  81580360    00000120     ti.drv.qmss.ae66 : qmss_acc.oe66 (.text:Qmss_disableAccumulator)
                  81580480    00000120     stk6_ppp_pppoe.ae66 : raweth.oe66 (.text:RawEthRxPacket)
                  815805a0    00000120                         : rawethsock.oe66 (.text:RawEthSockRecvNC)
                  815806c0    00000120                         : raweth.oe66 (.text:RawEthTxPacket)
                  815807e0    00000120                         : sb.oe66 (.text:SBNew)
                  81580900    00000120     netctrl.ae66 : netsrv.oe66 (.text:SPConfig)
                  81580a20    00000120                  : netsrv.oe66 (.text:SPService)
                  81580b40    00000120     stk6_ppp_pppoe.ae66 : sock6.oe66 (.text:Sock6Disconnect)
                  81580c60    00000120                         : sock6.oe66 (.text:Sock6Shutdown)
                  81580d80    00000120                         : sockpcb.oe66 (.text:SockPcbFindRaw)
                  81580ea0    00000120                         : sock.oe66 (.text:SockShutdown)
                  81580fc0    00000120                         : tcp6prot.oe66 (.text:TCP6PrAttach)
                  815810e0    00000120                         : tcpprot.oe66 (.text:TcpPrAttach)
                  81581200    00000120     nettool.ae66 : telnetd.oe66 (.text:TelnetOpen)
                  81581320    00000120     stk6_ppp_pppoe.ae66 : rtable.oe66 (.text:_RtNodeInsert)
                  81581440    00000120     rts6600_elf.lib : fclose.obj (.text:_closefile)
                  81581560    00000120                     : _printfi.obj (.text:_ltostr)
                  81581680    00000120     os.ae66 : mem.oe66 (.text:_mmInit)
                  815817a0    00000120     nettool.ae66 : daemon.oe66 (.text:dchild)
                  815818c0    00000120     os.ae66 : efs.oe66 (.text:efs_createfilecb)
                  815819e0    00000120     stk6_ppp_pppoe.ae66 : fileuser.oe66 (.text:fdOpenSession)
                  81581b00    00000120     rts6600_elf.lib : fseek.obj (.text:fseek)
                  81581c20    00000120     nettool.ae66 : http.oe66 (.text:httpOpen)
                  81581d40    00000120                  : httpsend.oe66 (.text:httpSendStatusLine)
                  81581e60    00000120     stk6_ppp_pppoe.ae66 : lcp.oe66 (.text:lcpOpen)
                  81581f80    00000120                         : lcp.oe66 (.text:lcpReject)
                  815820a0    00000120     sysbios.lib : BIOS.obj (.text:rtsUnlock$0)
                  815821c0    00000120     stk6_ppp_pppoe.ae66 : socket.oe66 (.text:socket)
                  815822e0    00000120     ti.targets.rts6000.ae66 : LoggerBuf.oe66 (.text:xdc_runtime_LoggerBuf_setFilterLevel__F)
                  81582400    00000120                             : Text.oe66 (.text:xdc_runtime_Text_putLab__F)
                  81582520    00000100     nettool.ae66 : config.oe66 (.text:CfgNew)
                  81582620    00000100                  : config.oe66 (.text:CfgSetExecuteOrder)
                  81582720    00000100     rts6600_elf.lib : trgdrv.obj (.text:HOSTlseek)
                  81582820    00000100     stk6_ppp_pppoe.ae66 : igmp.oe66 (.text:IGMPTimer)
                  81582920    00000100                         : ipv6.oe66 (.text:IPv6GetSubnetMaskFromBits)
                  81582a20    00000100                         : ipv6_frag.oe66 (.text:IPv6ReasmTimeout)
                  81582b20    00000100                         : rtc.oe66 (.text:RTCMsg)
                  81582c20    00000100                         : rawethsock.oe66 (.text:RawEthSockCheck)
                  81582d20    00000100                         : route.oe66 (.text:RtRedirect)
                  81582e20    00000100                         : sockint.oe66 (.text:SockValidateRoute)
                  81582f20    00000100     nettool.ae66 : dhcpsm.oe66 (.text:StateSelecting)
                  81583020    00000100     stk6_ppp_pppoe.ae66 : tcp6prot.oe66 (.text:TCP6PrInherit)
                  81583120    00000100                         : tcp6time.oe66 (.text:TCP6XmitTimer)
                  81583220    00000100                         : tcpprot.oe66 (.text:TcpPrInherit)
                  81583320    00000100                         : tcptime.oe66 (.text:TcpXmitTimer)
                  81583420    00000100                         : rtable.oe66 (.text:_RtNodeRemove)
                  81583520    00000100     rts6600_elf.lib : _io_perm.obj (.text:_wrt_ok)
                  81583620    00000100     stk6_ppp_pppoe.ae66 : file.oe66 (.text:fdint_unlockfd)
                  81583720    00000100     sysbios.lib : BIOS.obj (.text:initDevice$44)
                  81583820    00000100     stk6_ppp_pppoe.ae66 : socket.oe66 (.text:listen)
                  81583920    00000100     os.ae66 : mem.oe66 (.text:mmFree)
                  81583a20    00000100     stk6_ppp_pppoe.ae66 : nimuppp.oe66 (.text:pppAddClient)
                  81583b20    00000100     sysbios.lib : BIOS.obj (.text:ti_sysbios_family_c64p_EventCombiner_dispatch__F)
                  81583c20    00000100                 : BIOS.obj (.text:ti_sysbios_knl_Clock_startI__E)
                  81583d20    00000100                 : BIOS.obj (.text:ti_sysbios_knl_Swi_restoreHwi__E)
                  81583e20    00000100     evm_pe66.oe66 (.text:ti_sysbios_knl_Task_Object__create__S)
                  81583f20    00000100     stk6_ppp_pppoe.ae66 : lliin.oe66 (.text:updateRtTable)
                  81584020    00000100     ti.targets.rts6000.ae66 : Core-mem.oe66 (.text:xdc_runtime_Core_deleteObject__I)
                  81584120    00000100                             : LoggerBuf.oe66 (.text:xdc_runtime_LoggerBuf_getFilterLevel__F)
                  81584220    00000100                             : Startup.oe66 (.text:xdc_runtime_Startup_exec__F)
                  81584320    00000100                             : Text.oe66 (.text:xdc_runtime_Text_putMod__F)
                  81584420    00000100                             : Text.oe66 (.text:xdc_runtime_Text_visitRope2__I)
                  81584520    000000e0     stk6_ppp_pppoe.ae66 : bind6.oe66 (.text:Bind6GetLinkLocalAddress)
                  81584600    000000e0     nettool.ae66 : config.oe66 (.text:CfgGetEntryCnt)
                  815846e0    000000e0                  : dhcpmain.oe66 (.text:DHCPClose)
                  815847c0    000000e0     rts6600_elf.lib : trgdrv.obj (.text:HOSTopen)
                  815848a0    000000e0     stk6_ppp_pppoe.ae66 : igmp.oe66 (.text:IGMPLeave)
                  81584980    000000e0                         : ipv6_frag.oe66 (.text:IPv6FindFragQ)
                  81584a60    000000e0     nettool.ae66 : dnsclnt.oe66 (.text:IPv6PTRStringToIPAddress)
                  81584b40    000000e0     stk6_ppp_pppoe.ae66 : lli6.oe66 (.text:LLI6Msg)
                  81584c20    000000e0                         : lli6.oe66 (.text:LLI6Update)
                  81584d00    000000e0                         : mld.oe66 (.text:MLDFindMulticastNode)
                  81584de0    000000e0                         : nimu.oe66 (.text:NIMUAllocateIndex)
                  81584ec0    000000e0                         : nimu.oe66 (.text:NIMUAllocateName)
                  81584fa0    000000e0                         : node.oe66 (.text:NodeDeRef)
                  81585080    000000e0                         : node.oe66 (.text:NodeNew)
                  81585160    000000e0                         : node.oe66 (.text:NodeTreeNew)
                  81585240    000000e0                         : pbm.oe66 (.text:PBMQ_enq)
                  81585320    000000e0                         : pbm.oe66 (.text:PBM_copy)
                  81585400    000000e0                         : rawethsock.oe66 (.text:RawEthSockNotify)
                  815854e0    000000e0                         : rawethsock_pcb.oe66 (.text:RawEthSockPcbAttach)
                  815855c0    000000e0                         : rawethsock.oe66 (.text:RawEthSockSend)
                  815856a0    000000e0                         : route6.oe66 (.text:Route6Msg)
                  81585780    000000e0                         : route.oe66 (.text:RtDeRef)
                  81585860    000000e0                         : route.oe66 (.text:RtRemove)
                  81585940    000000e0                         : sb.oe66 (.text:SBReadNC)
                  81585a20    000000e0                         : sb.oe66 (.text:SBSetMax)
                  81585b00    000000e0                         : sock6int.oe66 (.text:Sock6SpawnAbort)
                  81585be0    000000e0                         : sock6int.oe66 (.text:Sock6ValidateRoute)
                  81585cc0    000000e0                         : sock.oe66 (.text:SockDisconnect)
                  81585da0    000000e0                         : sockint.oe66 (.text:SockSpawnAbort)
                  81585e80    000000e0                         : tcp6prot.oe66 (.text:TCP6PrDetach)
                  81585f60    000000e0                         : tcp6prot.oe66 (.text:TCP6PrDisconnect)
                  81586040    000000e0                         : tcp6prot.oe66 (.text:TCP6ValidateMetrics)
                  81586120    000000e0                         : tcpprot.oe66 (.text:TcpPrDetach)
                  81586200    000000e0                         : tcpprot.oe66 (.text:TcpPrDisconnect)
                  815862e0    000000e0                         : tcpprot.oe66 (.text:TcpValidateMetrics)
                  815863c0    000000e0                         : timer.oe66 (.text:TimerListInsert)
                  815864a0    000000e0                         : udp.oe66 (.text:UdpChecksum)
                  81586580    000000e0                         : vlan.oe66 (.text:VLANDeinit)
                  81586660    000000e0                         : vlan.oe66 (.text:VLANReceivePacket)
                  81586740    000000e0     nettool.ae66 : config.oe66 (.text:_CfgEntryScan)
                  81586820    000000e0     stk6_ppp_pppoe.ae66 : lli.oe66 (.text:_LLIExpListInsert)
                  81586900    000000e0                         : rtable.oe66 (.text:_RtExpListInsert)
                  815869e0    000000e0     rts6600_elf.lib : divi.obj (.text:__divi)
                  81586ac0    000000e0                     : _printfi.obj (.text:_div)
                  81586ba0    000000e0                     : atoi.obj (.text:atoi)
                  81586c80    000000e0                     : lowlev.obj (.text:close)
                  81586d60    000000e0                     : copy_zero_init.obj (.text:decompress:ZI:__TI_zero_init)
                  81586e40    000000e0     os.ae66 : efs.oe66 (.text:efs_internal_remove)
                  81586f20    000000e0     stk6_ppp_pppoe.ae66 : file.oe66 (.text:fdint_lockfd)
                  81587000    000000e0     rts6600_elf.lib : fflush.obj (.text:fflush)
                  815870e0    000000e0     nettool.ae66 : httpclie.oe66 (.text:httpGetMimeBits)
                  815871c0    000000e0     os.ae66 : task.oe66 (.text:llExit)
                  815872a0    000000e0     rts6600_elf.lib : ltoa.obj (.text:ltoa)
                  81587380    000000e0                     : memset.obj (.text:memset)
                  81587460    000000e0     os.ae66 : mem.oe66 (.text:mmBulkAlloc)
                  81587540    000000e0     stk6_ppp_pppoe.ae66 : nimuppp.oe66 (.text:pppFree)
                  81587620    000000e0     rts6600_elf.lib : printf.obj (.text:printf)
                  81587700    000000e0     sysbios.lib : BIOS.obj (.text:ti_sysbios_knl_Clock_start__E)
                  815877e0    000000e0                 : BIOS.obj (.text:ti_sysbios_timers_timer64_Timer_startup__E)
                  815878c0    000000e0     ti.targets.rts6000.ae66 : Error.oe66 (.text:xdc_runtime_Error_print__F)
                  815879a0    000000e0     evm_pe66.oe66 (.text:xdc_runtime_LoggerBuf_Object__create__S)
                  81587a80    000000e0     ti.targets.rts6000.ae66 : Memory.oe66 (.text:xdc_runtime_Memory_alloc__F)
                  81587b60    000000c0     rts6600_elf.lib : trgdrv.obj (.text:HOSTread)
                  81587c20    000000c0                     : trgdrv.obj (.text:HOSTunlink)
                  81587ce0    000000c0                     : trgdrv.obj (.text:HOSTwrite)
                  81587da0    000000c0     stk6_ppp_pppoe.ae66 : icmpv6in.oe66 (.text:ICMPv6RecvDstUnreachable)
                  81587e60    000000c0                         : icmpv6in.oe66 (.text:ICMPv6SocketErrorInterface)
                  81587f20    000000c0                         : ipv6.oe66 (.text:IPv6Layer4ComputeChecksum)
                  81587fe0    000000c0                         : lli.oe66 (.text:LLIGetValidTime)
                  815880a0    000000c0                         : lli.oe66 (.text:LLIMsg)
                  81588160    000000c0                         : mld.oe66 (.text:MLDCreateMulticastNode)
                  81588220    000000c0                         : mld.oe66 (.text:MLDLeaveGroup)
                  815882e0    000000c0                         : nimu.oe66 (.text:NIMUFindByName)
                  815883a0    000000c0     netctrl.ae66 : netsrv.oe66 (.text:NS_BootTask)
                  81588460    000000c0     stk6_ppp_pppoe.ae66 : node.oe66 (.text:NodeUpdatePL)
                  81588520    000000c0     nettool.ae66 : ipaddr.oe66 (.text:NtIfIdx2Ip)
                  815885e0    000000c0     ti.drv.qmss.ae66 : qmss_drv.oe66 (.text:Qmss_setEoiVector)
                  815886a0    000000c0     stk6_ppp_pppoe.ae66 : route6.oe66 (.text:Rt6FindDefaultRouter)
                  81588760    000000c0                         : rtable.oe66 (.text:RtWalkBegin)
                  81588820    000000c0                         : sb6.oe66 (.text:SB6Flush)
                  815888e0    000000c0                         : sb6.oe66 (.text:SB6SetMax)
                  815889a0    000000c0                         : sb.oe66 (.text:SBFlush)
                  81588a60    000000c0                         : sock6.oe66 (.text:Sock6IntAbort)
                  81588b20    000000c0                         : sock6pcb.oe66 (.text:Sock6PcbResolveChain)
                  81588be0    000000c0                         : sock6pcb.oe66 (.text:Sock6PcbRtChange)
                  81588ca0    000000c0                         : sock.oe66 (.text:SockIntAbort)
                  81588d60    000000c0                         : sockpcb.oe66 (.text:SockPcbRtChange)
                  81588e20    000000c0                         : tcp6prot.oe66 (.text:TCP6Close)
                  81588ee0    000000c0                         : tcp6time.oe66 (.text:TCP6TimeoutSackRexmt)
                  81588fa0    000000c0     os.ae66 : task.oe66 (.text:TaskGetEnv)
                  81589060    000000c0     stk6_ppp_pppoe.ae66 : tcp.oe66 (.text:TcpChecksum)
                  81589120    000000c0                         : tcpprot.oe66 (.text:TcpClose)
                  815891e0    000000c0                         : tcptime.oe66 (.text:TcpTimeoutSackRexmt)
                  815892a0    000000c0                         : bind6.oe66 (.text:_Bind6FindByHostInList)
                  81589360    000000c0                         : bind6.oe66 (.text:_Bind6FindByNetInList)
                  81589420    000000c0     rts6600_elf.lib : dtor_list.obj (.text:_Z11__TI_atexitPFYvPvES_S_)
                  815894e0    000000c0                     : dtor_list.obj (.text:__cxa_finalize)
                  815895a0    000000c0                     : divu.obj (.text:__divu)
                  81589660    000000c0                     : remi.obj (.text:__remi)
                  81589720    000000c0                     : fflush.obj (.text:_doflush)
                  815897e0    000000c0     ti.drv.cppi.ae66 : cppi_listlib.oe66 (.text:cppi_list_remove_node)
                  815898a0    000000c0     nettool.ae66 : dhcptags.oe66 (.text:dhcpOptionsClear)
                  81589960    000000c0     os.ae66 : efs.oe66 (.text:efs_fopen)
                  81589a20    000000c0     rts6600_elf.lib : exit.obj (.text:exit)
                  81589ae0    000000c0     nettool.ae66 : httpsend.oe66 (.text:httpSendFullResponse)
                  81589ba0    000000c0     os.ae66 : mem.oe66 (.text:mmZeroInit)
                  81589c60    000000c0     stk6_ppp_pppoe.ae66 : nimuppp.oe66 (.text:pppAddIP)
                  81589d20    000000c0     rts6600_elf.lib : strtok.obj (.text:strtok)
                  81589de0    000000c0     evm_pe66.oe66 (.text:ti_ndk_config_Global_stackThread)
                  81589ea0    000000c0     sysbios.lib : BIOS.obj (.text:ti_sysbios_BIOS_errorRaiseHook__I)
                  81589f60    000000c0                 : BIOS.obj (.text:ti_sysbios_heaps_HeapMem_getStats__E)
                  8158a020    000000c0                 : BIOS.obj (.text:ti_sysbios_knl_Clock_logTick__E)
                  8158a0e0    000000c0                 : BIOS.obj (.text:ti_sysbios_knl_Task_stat__E)
                  8158a1a0    000000c0                 : BIOS.obj (.text:ti_sysbios_timers_timer64_Timer_stop__E)
                  8158a260    000000c0     ti.targets.rts6000.ae66 : LoggerBuf.oe66 (.text:xdc_runtime_LoggerBuf_Instance_init__F)
                  8158a320    000000c0                             : System.oe66 (.text:xdc_runtime_System_formatNum__I)
                  8158a3e0    000000a0     nettool.ae66 : config.oe66 (.text:CfgEntryDeRef)
                  8158a480    000000a0                  : config.oe66 (.text:CfgEntryGetData)
                  8158a520    000000a0                  : config.oe66 (.text:CfgGetImmediate)
                  8158a5c0    000000a0                  : telnetd.oe66 (.text:CmdWriteBytes)
                  8158a660    000000a0                  : telnetd.oe66 (.text:CmdWriteCmd)
                  8158a700    000000a0     ti.drv.cppi.ae66 : cppi_drv.oe66 (.text:Cppi_channelEnable)
                  8158a7a0    000000a0     stk6_ppp_pppoe.ae66 : file.oe66 (.text:FdSignalEvent)
                  8158a840    000000a0     rts6600_elf.lib : trgdrv.obj (.text:HOSTclose)
                  8158a8e0    000000a0     stk6_ppp_pppoe.ae66 : ipfrag.oe66 (.text:IPReasmFree)
                  8158a980    000000a0                         : ipfrag.oe66 (.text:IPReasmTimeout)
                  8158aa20    000000a0                         : ipv6.oe66 (.text:IPv6CompareAddress)
                  8158aac0    000000a0                         : lliin.oe66 (.text:LLIValidateRoute)
                  8158ab60    000000a0                         : md5.oe66 (.text:MD5Final)
                  8158ac00    000000a0                         : nimu.oe66 (.text:NIMUShutdown)
                  8158aca0    000000a0                         : nimu.oe66 (.text:NIMUUnregister)
                  8158ad40    000000a0     nettool.ae66 : ipaddr.oe66 (.text:NtAddNetwork)
                  8158ade0    000000a0     stk6_ppp_pppoe.ae66 : pbm.oe66 (.text:PBM_open)
                  8158ae80    000000a0                         : pipe.oe66 (.text:PipeCheck)
                  8158af20    000000a0     ti.drv.qmss.ae66 : qmss_drv.oe66 (.text:Qmss_queueClose)
                  8158afc0    000000a0                      : qmss_drv.oe66 (.text:Qmss_startCfg)
                  8158b060    000000a0     stk6_ppp_pppoe.ae66 : rtable.oe66 (.text:RouteMsg)
                  8158b100    000000a0                         : route.oe66 (.text:RtNew)
                  8158b1a0    000000a0                         : sb6.oe66 (.text:SB6Free)
                  8158b240    000000a0                         : sb.oe66 (.text:SBFree)
                  8158b2e0    000000a0     os.ae66 : semaphore.oe66 (.text:SemCreate)
                  8158b380    000000a0     stk6_ppp_pppoe.ae66 : sock6pcb.oe66 (.text:Sock6CleanPcb)
                  8158b420    000000a0                         : sock6.oe66 (.text:Sock6GetName)
                  8158b4c0    000000a0                         : sock.oe66 (.text:SockBind)
                  8158b560    000000a0                         : sockpcb.oe66 (.text:SockCleanPcb)
                  8158b600    000000a0                         : sockpcb.oe66 (.text:SockPcbResolveChain)
                  8158b6a0    000000a0                         : tcp6prot.oe66 (.text:TCP6Drop)
                  8158b740    000000a0                         : tcp6prot.oe66 (.text:TCP6PrCtlError)
                  8158b7e0    000000a0                         : tcp6prot.oe66 (.text:TCP6PrSend)
                  8158b880    000000a0                         : tcp6prot.oe66 (.text:TCP6PrSendOOB)
                  8158b920    000000a0     os.ae66 : task.oe66 (.text:TaskCreate)
                  8158b9c0    000000a0     stk6_ppp_pppoe.ae66 : tcpprot.oe66 (.text:TcpDrop)
                  8158ba60    000000a0                         : tcpprot.oe66 (.text:TcpPrCtlError)
                  8158bb00    000000a0                         : tcpprot.oe66 (.text:TcpPrSend)
                  8158bba0    000000a0                         : tcpprot.oe66 (.text:TcpPrSendOOB)
                  8158bc40    000000a0                         : timer.oe66 (.text:TimerNew)
                  8158bce0    000000a0     nettool.ae66 : config.oe66 (.text:_CfgRelease)
                  8158bd80    000000a0     stk6_ppp_pppoe.ae66 : lli.oe66 (.text:_LLITimeoutFlush)
                  8158be20    000000a0     rts6600_elf.lib : remu.obj (.text:__remu)
                  8158bec0    000000a0     boot.ae66 : boot.oe66 (.text:_c_int00)
                  8158bf60    000000a0     rts6600_elf.lib : fopen.obj (.text:_cleanup)
                  8158c000    000000a0                     : _printfi.obj (.text:_ecpy)
                  8158c0a0    000000a0                     : _printfi.obj (.text:_fcpy)
                  8158c140    000000a0                     : _printfi.obj (.text:_pconv_f)
                  8158c1e0    000000a0     stk6_ppp_pppoe.ae66 : auth.oe66 (.text:authStart)
                  8158c280    000000a0     ti.drv.cppi.ae66 : cppi_heap.oe66 (.text:cppi_internal_heap_malloc)
                  8158c320    000000a0                      : cppi_listlib.oe66 (.text:cppi_list_cat)
                  8158c3c0    000000a0     nettool.ae66 : dhcpbild.oe66 (.text:dhcpBuildDecline)
                  8158c460    000000a0                  : dhcpsm.oe66 (.text:dhcpIPRemove)
                  8158c500    000000a0     os.ae66 : efs.oe66 (.text:efs_filesend)
                  8158c5a0    000000a0     stk6_ppp_pppoe.ae66 : fileuser.oe66 (.text:fdCloseSession)
                  8158c640    000000a0     rts6600_elf.lib : lowlev.obj (.text:finddevice)
                  8158c6e0    000000a0     stk6_ppp_pppoe.ae66 : lcp.oe66 (.text:lcpInit)
                  8158c780    000000a0                         : lcp.oe66 (.text:lcpSendTerm)
                  8158c820    000000a0     hal_timer_bios.ae66 : lltimer.oe66 (.text:llTimerTick)
                  8158c8c0    000000a0     rts6600_elf.lib : lowlev.obj (.text:lseek)
                  8158c960    000000a0                     : memcpy64.obj (.text:memcpy)
                  8158ca00    000000a0     os.ae66 : mem.oe66 (.text:mmBulkFree)
                  8158caa0    000000a0             : mem.oe66 (.text:mmInitPage)
                  8158cb40    000000a0     ti.drv.pa.ae66 : pa.oe66 (.text:pa_format_fcmd_header)
                  8158cbe0    000000a0                    : pa.oe66 (.text:pa_pdsp_run)
                  8158cc80    000000a0     os.ae66 : ossys.oe66 (.text:stricmp)
                  8158cd20    000000a0     rts6600_elf.lib : strspn.obj (.text:strspn)
                  8158cdc0    000000a0                     : strstr.obj (.text:strstr)
                  8158ce60    000000a0     sysbios.lib : BIOS.obj (.text:ti_sysbios_heaps_HeapMem_init__I)
                  8158cf00    000000a0     evm_pe66.oe66 (.text:ti_sysbios_knl_Clock_Object__create__S)
                  8158cfa0    000000a0     rts6600_elf.lib : lowlev.obj (.text:write)
                  8158d040    000000a0     ti.targets.rts6000.ae66 : Assert.oe66 (.text:xdc_runtime_Assert_raise__I)
                  8158d0e0    000000a0                             : LoggerBuf.oe66 (.text:xdc_runtime_LoggerBuf_Module_startup__F)
                  8158d180    00000080     ti.drv.cppi.ae66 : cppi_drv.oe66 (.text:Cppi_setCpdmaLoopback)
                  8158d200    00000080     nettool.ae66 : dnsclnt.oe66 (.text:DNSGetHostByAddr)
                  8158d280    00000080     stk6_ppp_pppoe.ae66 : md5.oe66 (.text:Decode)
                  8158d300    00000080                         : icmp.oe66 (.text:ICMPChecksum)
                  8158d380    00000080                         : icmpv6in.oe66 (.text:ICMPv6RecvParamProblem)
                  8158d400    00000080                         : icmpv6_ndisc.oe66 (.text:ICMPv6RecvRS)
                  8158d480    00000080                         : icmpv6in.oe66 (.text:ICMPv6RecvTimeExceeded)
                  8158d500    00000080                         : ipv6out.oe66 (.text:IPv6GetRoute)
                  8158d580    00000080                         : lli6.oe66 (.text:LLI6Free)
                  8158d600    00000080                         : lli6.oe66 (.text:LLI6IsRouterStatMachine)
                  8158d680    00000080                         : lli.oe66 (.text:LLIRemoveStaticEntry)
                  8158d700    00000080     netctrl.ae66 : netctrl.oe66 (.text:NC_SystemClose)
                  8158d780    00000080     stk6_ppp_pppoe.ae66 : nimu.oe66 (.text:NIMUInit)
                  8158d800    00000080                         : pbm.oe66 (.text:PBMQ_deq)
                  8158d880    00000080                         : nimuppp.oe66 (.text:PPPSend)
                  8158d900    00000080     ti.drv.pa.ae66 : painit.oe66 (.text:Pa_getBufferReq)
                  8158d980    00000080     stk6_ppp_pppoe.ae66 : pipe.oe66 (.text:PipeClose)
                  8158da00    00000080     ti.drv.qmss.ae66 : qmss_drv.oe66 (.text:Qmss_getMemRegQueueHandle)
                  8158da80    00000080                      : qmss_drv.oe66 (.text:Qmss_queueOpen)
                  8158db00    00000080     stk6_ppp_pppoe.ae66 : rawethsock.oe66 (.text:RawEthSockClose)
                  8158db80    00000080                         : rawethsock_pcb.oe66 (.text:RawEthSockPcbDetach)
                  8158dc00    00000080                         : route6.oe66 (.text:Rt6Update)
                  8158dc80    00000080                         : route.oe66 (.text:RtSetFailure)
                  8158dd00    00000080                         : route.oe66 (.text:RtSetTimeout)
                  8158dd80    00000080                         : sock6.oe66 (.text:Sock6Bind)
                  8158de00    00000080                         : sock6pcb.oe66 (.text:Sock6PcbCleanup)
                  8158de80    00000080                         : sock.oe66 (.text:SockGetName)
                  8158df00    00000080                         : sockpcb.oe66 (.text:SockPcbCleanup)
                  8158df80    00000080                         : sockpcb.oe66 (.text:SockPcbDetach)
                  8158e000    00000080                         : tcp6prot.oe66 (.text:TCP6PrListen)
                  8158e080    00000080     os.ae66 : task.oe66 (.text:TaskSetEnv)
                  8158e100    00000080     stk6_ppp_pppoe.ae66 : tcpprot.oe66 (.text:TcpPrListen)
                  8158e180    00000080                         : timer.oe66 (.text:TimerHSTick)
                  8158e200    00000080                         : timer.oe66 (.text:TimerListRemove)
                  8158e280    00000080     nettool.ae66 : config.oe66 (.text:_CfgAcquire)
                  8158e300    00000080     stk6_ppp_pppoe.ae66 : lli.oe66 (.text:_LLIExpListRemove)
                  8158e380    00000080                         : rtc.oe66 (.text:_RTCSendRtAdv)
                  8158e400    00000080                         : rtable.oe66 (.text:_RtExpListRemove)
                  8158e480    00000080     rts6600_elf.lib : fixdu.obj (.text:__c6xabi_fixdu)
                  8158e500    00000080                     : llshift.obj (.text:__c6xabi_llshl)
                  8158e580    00000080     sysbios.lib : c62_TaskSupport_asm.obj (.text:_ti_sysbios_family_c62_TaskSupport_swap__E)
                  8158e600    00000080     ti.drv.cppi.ae66 : cppi_heap.oe66 (.text:cppi_internal_heap_cache_begin)
                  8158e680    00000080                      : cppi_listlib.oe66 (.text:cppi_list_remove)
                  8158e700    00000080     nettool.ae66 : dhcpsock.oe66 (.text:dhcpSocketClose)
                  8158e780    00000080     os.ae66 : efs.oe66 (.text:efs_destroyfile)
                  8158e800    00000080             : efs.oe66 (.text:efs_fclose)
                  8158e880    00000080             : efs.oe66 (.text:efs_findfile)
                  8158e900    00000080     stk6_ppp_pppoe.ae66 : file.oe66 (.text:fdint_waitevent)
                  8158e980    00000080     nettool.ae66 : httpsend.oe66 (.text:httpSendEntityLength)
                  8158ea00    00000080                  : httpsend.oe66 (.text:httpSendErrorResponse)
                  8158ea80    00000080     hal_timer_bios.ae66 : lltimer.oe66 (.text:llTimerGetTime)
                  8158eb00    00000080     evm_pe66.oe66 (.text:malloc)
                  8158eb80    00000080     ti.drv.pa.ae66 : pa.oe66 (.text:pa_uint8_match)
                  8158ec00    00000080     rts6600_elf.lib : trgmsg.obj (.text:readmsg)
                  8158ec80    00000080     nettool.ae66 : httpsend.oe66 (.text:strcat)
                  8158ed00    00000080     ti.drv.pa.ae66 : pa.oe66 (.text:swizFcmd)
                  8158ed80    00000080     ti.platform.evm6670l.ae66 : evm66x_i2c.obj (.text)
                  8158ee00    00000080     evm_pe66.oe66 (.text:ti_sysbios_BIOS_exitFunc__I)
                  8158ee80    00000080     sysbios.lib : BIOS.obj (.text:ti_sysbios_family_c62_TaskSupport_start__E)
                  8158ef00    00000080                 : BIOS.obj (.text:ti_sysbios_family_c64p_Exception_Module_startup__F)
                  8158ef80    00000080                 : BIOS.obj (.text:ti_sysbios_family_c64p_Hwi_eventMap__E)
                  8158f000    00000080     evm_pe66.oe66 (.text:ti_sysbios_gates_GateHwi_Object__create__S)
                  8158f080    00000080     evm_pe66.oe66 (.text:ti_sysbios_gates_GateMutex_Object__create__S)
                  8158f100    00000080     sysbios.lib : BIOS.obj (.text:ti_sysbios_hal_Hwi_checkStack:ti_sysbios_hal_Hwi_checkStack)
                  8158f180    00000080     evm_pe66.oe66 (.text:ti_sysbios_heaps_HeapMem_Object__create__S)
                  8158f200    00000080     sysbios.lib : BIOS.obj (.text:ti_sysbios_knl_Clock_Module_startup__F)
                  8158f280    00000080     evm_pe66.oe66 (.text:ti_sysbios_knl_Clock_doTick__I)
                  8158f300    00000080     sysbios.lib : BIOS.obj (.text:ti_sysbios_knl_Clock_getTicks__E)
                  8158f380    00000080                 : BIOS.obj (.text:ti_sysbios_knl_Idle_loop__E)
                  8158f400    00000080     evm_pe66.oe66 (.text:ti_sysbios_knl_Queue_Object__create__S)
                  8158f480    00000080     evm_pe66.oe66 (.text:ti_sysbios_knl_Semaphore_Object__create__S)
                  8158f500    00000080     sysbios.lib : BIOS.obj (.text:ti_sysbios_knl_Semaphore_pendTimeout__I)
                  8158f580    00000080                 : BIOS.obj (.text:ti_sysbios_knl_Swi_startup__E)
                  8158f600    00000080                 : BIOS.obj (.text:ti_sysbios_knl_Task_deleteTerminatedTasksFunc__I)
                  8158f680    00000080                 : BIOS.obj (.text:ti_sysbios_knl_Task_restore__E)
                  8158f700    00000080                 : BIOS.obj (.text:ti_sysbios_timers_timer64_Timer_getCount__E)
                  8158f780    00000080                 : BIOS.obj (.text:ti_sysbios_timers_timer64_Timer_getPeriod__E)
                  8158f800    00000080     rts6600_elf.lib : lowlev.obj (.text:unlink)
                  8158f880    00000080     ti.targets.rts6000.ae66 : Core-label.oe66 (.text:xdc_runtime_Core_assignLabel__I)
                  8158f900    00000080                             : Core-params.oe66 (.text:xdc_runtime_Core_assignParams__I)
                  8158f980    00000080                             : LoggerBuf.oe66 (.text:xdc_runtime_LoggerBuf_filterOutEvent__I)
                  8158fa00    00000080                             : System.oe66 (.text:xdc_runtime_System_atexit__F)
                  8158fa80    00000080                             : System.oe66 (.text:xdc_runtime_System_rtsExit__I)
                  8158fb00    00000080                             : Text.oe66 (.text:xdc_runtime_Text_printVisFxn__I)
                  8158fb80    00000080                             : Text.oe66 (.text:xdc_runtime_Text_xprintf__I)
                  8158fc00    00000060     stk6_ppp_pppoe.ae66 : bind6.oe66 (.text:Bind6FindByIF)
                  8158fc60    00000060                         : bind6.oe66 (.text:Bind6IF2IPHost)
                  8158fcc0    00000060                         : bind.oe66 (.text:BindFindByIF)
                  8158fd20    00000060                         : bind.oe66 (.text:BindFindByNet)
                  8158fd80    00000060                         : bind.oe66 (.text:BindGetIFByDBCast)
                  8158fde0    00000060                         : bind.oe66 (.text:BindIF2IPHost)
                  8158fe40    00000060     nettool.ae66 : config.oe66 (.text:CfgEntryInfo)
                  8158fea0    00000060                  : config.oe66 (.text:CfgSetService)
                  8158ff00    00000060                  : dnspkt.oe66 (.text:DNSBuildRequest)
                  8158ff60    00000060     stk6_ppp_pppoe.ae66 : md5.oe66 (.text:Encode)
                  8158ffc0    00000060                         : exec.oe66 (.text:ExecBroadcast)
                  81590020    00000060                         : igmp.oe66 (.text:IGMPTestGroup)
                  81590080    00000060                         : ip.oe66 (.text:IPChecksum)
                  815900e0    00000060                         : lli.oe66 (.text:LLIFree)
                  81590140    00000060                         : lli.oe66 (.text:LLIGetMacAddr)
                  815901a0    00000060                         : nimu.oe66 (.text:NIMUAddHeader)
                  81590200    00000060                         : nimu.oe66 (.text:NIMUCreatePacket)
                  81590260    00000060                         : nimu.oe66 (.text:NIMUFindByIndex)
                  815902c0    00000060                         : nimu.oe66 (.text:NIMUPacketService)
                  81590320    00000060                         : nimu.oe66 (.text:NIMUPacketServiceCheck)
                  81590380    00000060                         : nimu.oe66 (.text:NIMUSendPacket)
                  815903e0    00000060     netctrl.ae66 : netsrv.oe66 (.text:NS_PreBoot)
                  81590440    00000060     nettool.ae66 : ipaddr.oe66 (.text:NtIPN2Str)
                  815904a0    00000060     stk6_ppp_pppoe.ae66 : nimuppp.oe66 (.text:PPPStart)
                  81590500    00000060                         : rtc.oe66 (.text:RTCAddHook)
                  81590560    00000060                         : rtc.oe66 (.text:RTCRemoveHook)
                  815905c0    00000060                         : rawethsock_pcb.oe66 (.text:RawEthSockPcbCleanup)
                  81590620    00000060                         : rawethsock_pcb.oe66 (.text:RawEthSockPcbFind)
                  81590680    00000060                         : route6.oe66 (.text:Rt6GetNetworkAddr)
                  815906e0    00000060                         : rtable.oe66 (.text:RtWalkEnd)
                  81590740    00000060     netctrl.ae66 : netsrv.oe66 (.text:ServiceCallback)
                  815907a0    00000060     stk6_ppp_pppoe.ae66 : sock6pcb.oe66 (.text:Sock6PcbDetach)
                  81590800    00000060                         : sock6prot.oe66 (.text:Sock6PrCtlError)
                  81590860    00000060                         : sock6prot.oe66 (.text:Sock6PrDetach)
                  815908c0    00000060                         : sockprot.oe66 (.text:SockPrCtlError)
                  81590920    00000060                         : sockprot.oe66 (.text:SockPrDetach)
                  81590980    00000060                         : tcp6prot.oe66 (.text:TCP6PrConnect)
                  815909e0    00000060                         : tcp6time.oe66 (.text:TCP6SetPersist)
                  81590a40    00000060                         : tcp6time.oe66 (.text:TCP6TimeoutPersist)
                  81590aa0    00000060                         : tcpprot.oe66 (.text:TcpPrConnect)
                  81590b00    00000060                         : tcptime.oe66 (.text:TcpSetPersist)
                  81590b60    00000060                         : tcptime.oe66 (.text:TcpTimeoutPersist)
                  81590bc0    00000060                         : vlan.oe66 (.text:VLANFindNode)
                  81590c20    00000060                         : vlan.oe66 (.text:VLANFindSourceInterface)
                  81590c80    00000060                         : vlan.oe66 (.text:VLANInit)
                  81590ce0    00000060     nettool.ae66 : config.oe66 (.text:_CfgEntryProcess)
                  81590d40    00000060     rts6600_elf.lib : frcmpyd_div.obj (.text:__c6xabi_frcmpyd_div)
                  81590da0    00000060                     : llshift.obj (.text:__c6xabi_llshru)
                  81590e00    00000060                     : imath64.obj (.text:_subcull)
                  81590e60    00000060     ti.drv.cppi.ae66 : cppi_listlib.oe66 (.text:cppi_list_add)
                  81590ec0    00000060                      : cppi_listlib.oe66 (.text:cppi_list_cache_invalidate)
                  81590f20    00000060     nettool.ae66 : dhcpbild.oe66 (.text:dhcpBuildDiscover)
                  81590f80    00000060                  : dhcpsock.oe66 (.text:dhcpPacketReceive)
                  81590fe0    00000060                  : dhcpsock.oe66 (.text:dhcpPacketSend)
                  81591040    00000060     stk6_ppp_pppoe.ae66 : fileuser.oe66 (.text:fdSelectAbort)
                  815910a0    00000060                         : file.oe66 (.text:fdint_clearevent)
                  81591100    00000060                         : file.oe66 (.text:fdint_getfdt)
                  81591160    00000060                         : file.oe66 (.text:fdint_setevent)
                  815911c0    00000060                         : fileuser.oe66 (.text:fdsetTestEntry)
                  81591220    00000060     nettool.ae66 : httpsend.oe66 (.text:httpSendClientStr)
                  81591280    00000060     stk6_ppp_pppoe.ae66 : ipcp.oe66 (.text:ipcpInit)
                  815912e0    00000060                         : ipcp.oe66 (.text:ipcpStart)
                  81591340    00000060                         : lcp.oe66 (.text:lcpClose)
                  815913a0    00000060                         : listlib.oe66 (.text:list_cat)
                  81591400    00000060                         : listlib.oe66 (.text:list_remove_node)
                  81591460    00000060     rts6600_elf.lib : memccpy.obj (.text:memccpy)
                  815914c0    00000060     os.ae66 : mem.oe66 (.text:mmUnInitPage)
                  81591520    00000060     ti.drv.pa.ae66 : painit.oe66 (.text:pa_init_global_cfg)
                  81591580    00000060                    : pa.oe66 (.text:pa_uint8_zero)
                  815915e0    00000060     stk6_ppp_pppoe.ae66 : nimupppoe.oe66 (.text:pppoeInput)
                  81591640    00000060                         : socket.oe66 (.text:recvncfree)
                  815916a0    00000060     rts6600_elf.lib : sprintf.obj (.text:sprintf)
                  81591700    00000060     nettool.ae66 : httpsend.oe66 (.text:strcpy)
                  81591760    00000060     rts6600_elf.lib : strcspn.obj (.text:strcspn)
                  815917c0    00000060     sysbios.lib : BIOS.obj (.text:ti_sysbios_BIOS_registerRTSLock__I)
                  81591820    00000060                 : BIOS.obj (.text:ti_sysbios_family_c62_TaskSupport_stackUsed__E)
                  81591880    00000060                 : BIOS.obj (.text:ti_sysbios_family_c64p_EventCombiner_Module_startup__F)
                  815918e0    00000060                 : BIOS.obj (.text:ti_sysbios_family_c64p_EventCombiner_dispatchPlug__F)
                  81591940    00000060                 : BIOS.obj (.text:ti_sysbios_family_c64p_EventCombiner_unused__F)
                  815919a0    00000060                 : BIOS.obj (.text:ti_sysbios_family_c64p_Hwi_restoreInterrupt__E)
                  81591a00    00000060                 : BIOS.obj (.text:ti_sysbios_gates_GateMutex_Instance_init__F)
                  81591a60    00000060     evm_pe66.oe66 (.text:ti_sysbios_gates_GateMutex_Object__delete__S)
                  81591ac0    00000060     sysbios.lib : BIOS.obj (.text:ti_sysbios_hal_Hwi_initStack:ti_sysbios_hal_Hwi_initStack)
                  81591b20    00000060     evm_pe66.oe66 (.text:ti_sysbios_knl_Semaphore_Object__delete__S)
                  81591b80    00000060     sysbios.lib : BIOS.obj (.text:ti_sysbios_knl_Swi_Module_startup__F)
                  81591be0    00000060     evm_pe66.oe66 (.text:ti_sysbios_knl_Task_Object__delete__S)
                  81591c40    00000060     sysbios.lib : BIOS.obj (.text:ti_sysbios_knl_Task_allBlockedFunction__I)
                  81591ca0    00000060                 : BIOS.obj (.text:ti_sysbios_knl_Task_enter__I)
                  81591d00    00000060     rts6600_elf.lib : vsprintf.obj (.text:vsprintf)
                  81591d60    00000060                     : trgmsg.obj (.text:writemsg)
                  81591dc0    00000060     evm_pe66.oe66 (.text:xdc_runtime_LoggerBuf_Object__delete__S)
                  81591e20    00000060     ti.targets.rts6000.ae66 : Memory.oe66 (.text:xdc_runtime_Memory_calloc__F)
                  81591e80    00000060                             : SysStd.oe66 (.text:xdc_runtime_SysStd_abort__F)
                  81591ee0    00000060                             : System.oe66 (.text:xdc_runtime_System_avprintf__F)
                  81591f40    00000060                             : System.oe66 (.text:xdc_runtime_System_vprintf__F)
                  81591fa0    00000060                             : Text.oe66 (.text:xdc_runtime_Text_cordText__F)
                  81592000    00000040     stk6_ppp_pppoe.ae66 : bind6.oe66 (.text:Bind6FindByHost)
                  81592040    00000040                         : bind6.oe66 (.text:Bind6FindByNet)
                  81592080    00000040                         : bind.oe66 (.text:BindGetIP)
                  815920c0    00000040                         : exec.oe66 (.text:ExecClose)
                  81592100    00000040                         : exec.oe66 (.text:ExecTimer)
                  81592140    00000040                         : ipv6.oe66 (.text:IPv6IsLinkLocal)
                  81592180    00000040                         : ipv6.oe66 (.text:IPv6IsMulticast)
                  815921c0    00000040                         : lli6.oe66 (.text:LLI6IsValid)
                  81592200    00000040                         : md5.oe66 (.text:MD5Init)
                  81592240    00000040                         : mld.oe66 (.text:MLDTestGroup)
                  81592280    00000040     netctrl.ae66 : netctrl.oe66 (.text:NC_BootComplete)
                  815922c0    00000040     os.ae66 : task.oe66 (.text:NDK_hookCreate)
                  81592300    00000040     nettool.ae66 : ipaddr.oe66 (.text:NtRemoveNetwork)
                  81592340    00000040     ti.drv.qmss.ae66 : qmss_drv.oe66 (.text:Qmss_ackInterrupt)
                  81592380    00000040                      : qmss_drv.oe66 (.text:Qmss_getMemRegDescSize)
                  815923c0    00000040     stk6_ppp_pppoe.ae66 : rawethsock_pcb.oe66 (.text:RawEthSockPcbInit)
                  81592400    00000040     nettool.ae66 : ipaddr.oe66 (.text:RouteHook)
                  81592440    00000040     stk6_ppp_pppoe.ae66 : route6.oe66 (.text:Rt6IsDefaultRoute)
                  81592480    00000040                         : sock6pcb.oe66 (.text:Sock6PcbAttach)
                  815924c0    00000040                         : sock6int.oe66 (.text:Sock6SetOOBMark)
                  81592500    00000040                         : sockpcb.oe66 (.text:SockPcbAttach)
                  81592540    00000040                         : sockint.oe66 (.text:SockSetOOBMark)
                  81592580    00000040                         : tcp6.oe66 (.text:TCP6TimeoutRemove)
                  815925c0    00000040                         : tcp6time.oe66 (.text:TCP6TimeoutWait2)
                  81592600    00000040     os.ae66 : task.oe66 (.text:TaskDestroy)
                  81592640    00000040     stk6_ppp_pppoe.ae66 : tcp.oe66 (.text:TcpTimeoutRemove)
                  81592680    00000040                         : tcptime.oe66 (.text:TcpTimeoutWait2)
                  815926c0    00000040     rts6600_elf.lib : isinf.obj (.text:__c6xabi_isinf)
                  81592700    00000040                     : _printfi.obj (.text:__c6xabi_isnan)
                  81592740    00000040                     : call_stub.obj (.text:__call_stub)
                  81592780    00000040                     : strasg.obj (.text:__strasgi_64plus)
                  815927c0    00000040                     : args_main.obj (.text:_args_main)
                  81592800    00000040     hal_timer_bios.ae66 : lltimer.oe66 (.text:_llTimerInit)
                  81592840    00000040     rts6600_elf.lib : sprintf.obj (.text:_outs)
                  81592880    00000040                     : vsprintf.obj (.text:_outs)
                  815928c0    00000040     sysbios.lib : c62_TaskSupport_asm.obj (.text:_ti_sysbios_family_c62_TaskSupport_buildTaskStack)
                  81592900    00000040                 : c64p_Hwi_asm_switch.obj (.text:_ti_sysbios_family_xxx_Hwi_switchToIsrStack)
                  81592940    00000040     os.ae66 : efs.oe66 (.text:efs_loadfunction)
                  81592980    00000040     stk6_ppp_pppoe.ae66 : fileuser.oe66 (.text:fdError)
                  815929c0    00000040                         : file.oe66 (.text:fdint_freefdt)
                  81592a00    00000040     evm_pe66.oe66 (.text:free)
                  81592a40    00000040     nettool.ae66 : inetaddr.oe66 (.text:inet_addr)
                  81592a80    00000040     stk6_ppp_pppoe.ae66 : listlib.oe66 (.text:list_add)
                  81592ac0    00000040                         : listlib.oe66 (.text:list_remove)
                  81592b00    00000040     ti.drv.pa.ae66 : pa.oe66 (.text:pa_mac_match)
                  81592b40    00000040     sysbios.lib : BIOS.obj (.text:rtsLock$0)
                  81592b80    00000040     evm_pe66.oe66 (.text:ti_sysbios_BIOS_startFunc__I)
                  81592bc0    00000040     sysbios.lib : BIOS.obj (.text:ti_sysbios_BIOS_start__E)
                  81592c00    00000040                 : BIOS.obj (.text:ti_sysbios_family_c64p_EventCombiner_disableEvent__F)
                  81592c40    00000040                 : BIOS.obj (.text:ti_sysbios_family_c64p_EventCombiner_enableEvent__F)
                  81592c80    00000040     evm_pe66.oe66 (.text:ti_sysbios_family_c64p_Hwi_Module__startupDone__F)
                  81592cc0    00000040     sysbios.lib : BIOS.obj (.text:ti_sysbios_family_c64p_Hwi_disableInterrupt__E)
                  81592d00    00000040                 : BIOS.obj (.text:ti_sysbios_family_c64p_Hwi_enableInterrupt__E)
                  81592d40    00000040     evm_pe66.oe66 (.text:ti_sysbios_gates_GateHwi_Handle__label__S)
                  81592d80    00000040     evm_pe66.oe66 (.text:ti_sysbios_gates_GateHwi_Object__delete__S)
                  81592dc0    00000040     evm_pe66.oe66 (.text:ti_sysbios_gates_GateMutex_Handle__label__S)
                  81592e00    00000040     sysbios.lib : BIOS.obj (.text:ti_sysbios_gates_GateMutex_Instance_finalize__F)
                  81592e40    00000040                 : BIOS.obj (.text:ti_sysbios_gates_GateMutex_leave__E)
                  81592e80    00000040     evm_pe66.oe66 (.text:ti_sysbios_hal_Timer_Module__startupDone__F)
                  81592ec0    00000040     evm_pe66.oe66 (.text:ti_sysbios_heaps_HeapMem_Handle__label__S)
                  81592f00    00000040     evm_pe66.oe66 (.text:ti_sysbios_heaps_HeapMem_Object__delete__S)
                  81592f40    00000040     evm_pe66.oe66 (.text:ti_sysbios_heaps_HeapMem_Object__get__S)
                  81592f80    00000040     evm_pe66.oe66 (.text:ti_sysbios_knl_Clock_Object__destruct__S)
                  81592fc0    00000040     sysbios.lib : BIOS.obj (.text:ti_sysbios_knl_Semaphore_Instance_finalize__F)
                  81593000    00000040     evm_pe66.oe66 (.text:ti_sysbios_knl_Semaphore_Object__destruct__S)
                  81593040    00000040     evm_pe66.oe66 (.text:ti_sysbios_knl_Swi_Object__get__S)
                  81593080    00000040     evm_pe66.oe66 (.text:ti_sysbios_knl_Task_Handle__label__S)
                  815930c0    00000040     evm_pe66.oe66 (.text:ti_sysbios_knl_Task_Object__get__S)
                  81593100    00000040     sysbios.lib : BIOS.obj (.text:ti_sysbios_knl_Task_sleepTimeout__I)
                  81593140    00000040     evm_pe66.oe66 (.text:ti_sysbios_timers_timer64_Timer_Module__startupDone__F)
                  81593180    00000040     ti.targets.rts6000.ae66 : Error.oe66 (.text:xdc_runtime_Error_check__F)
                  815931c0    00000040                             : Error.oe66 (.text:xdc_runtime_Error_init__F)
                  81593200    00000040                             : Gate.oe66 (.text:xdc_runtime_Gate_leaveSystem__F)
                  81593240    00000040     evm_pe66.oe66 (.text:xdc_runtime_LoggerBuf_Handle__label__S)
                  81593280    00000040     ti.targets.rts6000.ae66 : LoggerBuf.oe66 (.text:xdc_runtime_LoggerBuf_Instance_finalize__F)
                  815932c0    00000040     evm_pe66.oe66 (.text:xdc_runtime_LoggerBuf_Object__get__S)
                  81593300    00000040     ti.targets.rts6000.ae66 : LoggerBuf.oe66 (.text:xdc_runtime_LoggerBuf_write0__F)
                  81593340    00000040                             : LoggerBuf.oe66 (.text:xdc_runtime_LoggerBuf_write1__F)
                  81593380    00000040                             : LoggerBuf.oe66 (.text:xdc_runtime_LoggerBuf_write2__F)
                  815933c0    00000040                             : Memory.oe66 (.text:xdc_runtime_Memory_free__F)
                  81593400    00000040                             : Registry.oe66 (.text:xdc_runtime_Registry_findById__F)
                  81593440    00000040                             : System.oe66 (.text:xdc_runtime_System_abort__F)
                  81593480    00000040     evm_pe66.oe66 (.text:xdc_runtime_System_aprintf__E)
                  815934c0    00000040     evm_pe66.oe66 (.text:xdc_runtime_System_printf__E)
                  81593500    00000040     ti.targets.rts6000.ae66 : Text.oe66 (.text:xdc_runtime_Text_ropeText__F)
                  81593540    00000020     stk6_ppp_pppoe.ae66 : bind6.oe66 (.text:Bind6GetInterfaceHandle)
                  81593560    00000020                         : bind6.oe66 (.text:Bind6GetLifetime)
                  81593580    00000020                         : bind6.oe66 (.text:Bind6SetLifetime)
                  815935a0    00000020                         : bind.oe66 (.text:BindGetFirst)
                  815935c0    00000020                         : bind.oe66 (.text:BindGetIF)
                  815935e0    00000020                         : bind.oe66 (.text:BindGetNext)
                  81593600    00000020                         : bind.oe66 (.text:BindIFNet2IPHost)
                  81593620    00000020                         : bind.oe66 (.text:BindIPHost2IF)
                  81593640    00000020     nettool.ae66 : config.oe66 (.text:CfgSetDefault)
                  81593660    00000020     ti.drv.cppi.ae66 : cppi_drv.oe66 (.text:Cppi_getVersionStr)
                  81593680    00000020                      : cppi_drv.oe66 (.text:Cppi_init)
                  815936a0    00000020     stk6_ppp_pppoe.ae66 : exec.oe66 (.text:ExecHRef)
                  815936c0    00000020                         : exec.oe66 (.text:ExecLowResource)
                  815936e0    00000020                         : ip.oe66 (.text:IPRtChange)
                  81593700    00000020     hal_userled_stub.ae66 : llled.oe66 (.text:LED_TOGGLE)
                  81593720    00000020     stk6_ppp_pppoe.ae66 : lli6.oe66 (.text:LLI6GetNetDevice)
                  81593740    00000020                         : lli6.oe66 (.text:LLI6IncRefCount)
                  81593760    00000020                         : lli6.oe66 (.text:LLI6IsDead)
                  81593780    00000020                         : lli6.oe66 (.text:LLI6IsRouter)
                  815937a0    00000020                         : lli6.oe66 (.text:LLI6SetIncomplete)
                  815937c0    00000020     netctrl.ae66 : netctrl.oe66 (.text:NC_IPUpdate)
                  815937e0    00000020                  : netctrl.oe66 (.text:NC_NetStop)
                  81593800    00000020     os.ae66 : task.oe66 (.text:NDK_hookInit)
                  81593820    00000020     stk6_ppp_pppoe.ae66 : nimu.oe66 (.text:NIMUGetRsvdSizeInfo)
                  81593840    00000020                         : nimu.oe66 (.text:NIMUSetRsvdSizeInfo)
                  81593860    00000020                         : nat.oe66 (.text:NatMsg)
                  81593880    00000020                         : node.oe66 (.text:NodeGetRt)
                  815938a0    00000020                         : node.oe66 (.text:NodeSetRt)
                  815938c0    00000020     os.ae66 : task.oe66 (.text:NotifyLowResource)
                  815938e0    00000020             : oem.oe66 (.text:OEMCacheClean)
                  81593900    00000020             : oem.oe66 (.text:OEMSysCritOff)
                  81593920    00000020             : oem.oe66 (.text:OEMSysCritOn)
                  81593940    00000020     stk6_ppp_pppoe.ae66 : pbm.oe66 (.text:PBM_close)
                  81593960    00000020     ti.drv.pa.ae66 : pa.oe66 (.text:Pa_getVersionStr)
                  81593980    00000020     ti.drv.qmss.ae66 : qmss_drv.oe66 (.text:Qmss_getQueueNumber)
                  815939a0    00000020                      : qmss_drv.oe66 (.text:Qmss_getVersionStr)
                  815939c0    00000020                      : qmss_drv.oe66 (.text:Qmss_start)
                  815939e0    00000020     stk6_ppp_pppoe.ae66 : rawethsock_prot.oe66 (.text:RawEthSockPrAttach)
                  81593a00    00000020                         : rawethsock_prot.oe66 (.text:RawEthSockPrDetach)
                  81593a20    00000020                         : route6.oe66 (.text:Rt6GetIF)
                  81593a40    00000020                         : route6.oe66 (.text:Rt6GetLLI)
                  81593a60    00000020                         : route6.oe66 (.text:Rt6GetMTU)
                  81593a80    00000020                         : route6.oe66 (.text:Rt6IncRefCount)
                  81593aa0    00000020                         : route6.oe66 (.text:Rt6IsLocalRoute)
                  81593ac0    00000020     os.ae66 : semaphore.oe66 (.text:SemDelete)
                  81593ae0    00000020             : semaphore.oe66 (.text:SemPend)
                  81593b00    00000020             : semaphore.oe66 (.text:SemPost)
                  81593b20    00000020             : semaphore.oe66 (.text:SemReset)
                  81593b40    00000020     stk6_ppp_pppoe.ae66 : sock6prot.oe66 (.text:Sock6PrAttach)
                  81593b60    00000020                         : sock6int.oe66 (.text:Sock6SetOOBData)
                  81593b80    00000020                         : sockprot.oe66 (.text:SockPrAttach)
                  81593ba0    00000020                         : sockint.oe66 (.text:SockSetOOBData)
                  81593bc0    00000020                         : tcp6prot.oe66 (.text:TCP6PrRecv)
                  81593be0    00000020                         : tcp6.oe66 (.text:TCP6TimeoutAdd)
                  81593c00    00000020     os.ae66 : task.oe66 (.text:TaskBlock)
                  81593c20    00000020             : task.oe66 (.text:TaskSelf)
                  81593c40    00000020             : task.oe66 (.text:TaskSetPri)
                  81593c60    00000020     stk6_ppp_pppoe.ae66 : tcpprot.oe66 (.text:TcpPrGetState)
                  81593c80    00000020                         : tcpprot.oe66 (.text:TcpPrRecv)
                  81593ca0    00000020                         : tcp.oe66 (.text:TcpTimeoutAdd)
                  81593cc0    00000020                         : timer.oe66 (.text:TimerFree)
                  81593ce0    00000020     os.ae66 : task.oe66 (.text:_TaskInit)
                  81593d00    00000020             : task.oe66 (.text:_TaskShutdown)
                  81593d20    00000020     rts6600_elf.lib : errno.obj (.text:__c6xabi_errno_addr)
                  81593d40    00000020                     : negll.obj (.text:__c6xabi_negll)
                  81593d60    00000020                     : dtor_list.obj (.text:__cxa_atexit)
                  81593d80    00000020                     : dtor_list.obj (.text:__cxa_ia64_exit)
                  81593da0    00000020                     : push.obj (.text:__pop_rts)
                  81593dc0    00000020                     : push.obj (.text:__push_rts)
                  81593de0    00000020     ti.targets.rts6000.ae66 : xdc_noinit.oe66 (.text:__xdc__init)
                  81593e00    00000020     hal_ser_stub.ae66 : llserstb.oe66 (.text:_llSerialInit)
                  81593e20    00000020                       : llserstb.oe66 (.text:_llSerialServiceCheck)
                  81593e40    00000020                       : llserstb.oe66 (.text:_llSerialShutdown)
                  81593e60    00000020     hal_timer_bios.ae66 : lltimer.oe66 (.text:_llTimerShutdown)
                  81593e80    00000020     hal_userled_stub.ae66 : llled.oe66 (.text:_llUserLedInit)
                  81593ea0    00000020                           : llled.oe66 (.text:_llUserLedShutdown)
                  81593ec0    00000020     rts6600_elf.lib : _lock.obj (.text:_nop)
                  81593ee0    00000020                     : printf.obj (.text:_outc)
                  81593f00    00000020                     : sprintf.obj (.text:_outc)
                  81593f20    00000020                     : vsprintf.obj (.text:_outc)
                  81593f40    00000020                     : printf.obj (.text:_outs)
                  81593f60    00000020                     : _lock.obj (.text:_register_lock)
                  81593f80    00000020                     : _lock.obj (.text:_register_unlock)
                  81593fa0    00000020     sysbios.lib : c62_TaskSupport_asm.obj (.text:_ti_sysbios_family_c62_TaskSupport_glue)
                  81593fc0    00000020                 : c64p_Hwi_asm_switch.obj (.text:_ti_sysbios_family_xxx_Hwi_switchToTaskStack)
                  81593fe0    00000020     rts6600_elf.lib : exit.obj (.text:abort)
                  81594000    00000020                     : dtor_list.obj (.text:atexit)
                  81594020    00000020     ti.drv.cppi.ae66 : cppi_heap.oe66 (.text:cppi_internal_heap_free)
                  81594040    00000020                      : cppi_listlib.oe66 (.text:cppi_list_get_head)
                  81594060    00000020                      : cppi_listlib.oe66 (.text:cppi_list_get_next)
                  81594080    00000020     ti.csl.ae66 : csl_version.oe66 (.text:csl_section:version:CSL_versionGetStr)
                  815940a0    00000020     rts6600_elf.lib : copy_decompress_none.obj (.text:decompress:none:__TI_decompress_none)
                  815940c0    00000020                     : copy_decompress_rle.obj (.text:decompress:rle24:__TI_decompress_rle24)
                  815940e0    00000020     os.ae66 : efs.oe66 (.text:efs_createfile)
                  81594100    00000020             : efs.oe66 (.text:efs_getfilesize)
                  81594120    00000020     stk6_ppp_pppoe.ae66 : file.oe66 (.text:fdint_signaltimeout)
                  81594140    00000020                         : listlib.oe66 (.text:list_get_head)
                  81594160    00000020                         : listlib.oe66 (.text:list_get_next)
                  81594180    00000020     hal_ser_stub.ae66 : llserstb.oe66 (.text:llSerialService)
                  815941a0    00000020     hal_timer_bios.ae66 : lltimer.oe66 (.text:llTimerGetStartTime)
                  815941c0    00000020     sysbios.lib : BIOS.obj (.text:nullFunc$0)
                  815941e0    00000020     ti.drv.pa.ae66 : pa.oe66 (.text:pa_u16_match)
                  81594200    00000020                    : pa.oe66 (.text:pa_u32_match)
                  81594220    00000020     rts6600_elf.lib : fputc.obj (.text:putc)
                  81594240    00000020                     : fputc.obj (.text:putchar)
                  81594260    00000020     evm_pe66.oe66 (.text:ti_sysbios_BIOS_RtsGateProxy_enter__E)
                  81594280    00000020     evm_pe66.oe66 (.text:ti_sysbios_BIOS_RtsGateProxy_leave__E)
                  815942a0    00000020     sysbios.lib : BIOS.obj (.text:ti_sysbios_BIOS_setThreadType__E)
                  815942c0    00000020     evm_pe66.oe66 (.text:ti_sysbios_family_c62_TaskSupport_Module__startupDone__S)
                  815942e0    00000020     sysbios.lib : BIOS.obj (.text:ti_sysbios_family_c62_TaskSupport_checkStack__E)
                  81594300    00000020                 : BIOS.obj (.text:ti_sysbios_family_c62_TaskSupport_getStackAlignment__E)
                  81594320    00000020                 : BIOS.obj (.text:ti_sysbios_family_c64p_Hwi_clearInterrupt__E)
                  81594340    00000020                 : BIOS.obj (.text:ti_sysbios_family_c64p_Hwi_startup__E)
                  81594360    00000020                 : BIOS.obj (.text:ti_sysbios_family_c64p_Hwi_switchFromBootStack__E)
                  81594380    00000020                 : BIOS.obj (.text:ti_sysbios_family_c64p_TimestampProvider_Module_startup__F)
                  815943a0    00000020                 : BIOS.obj (.text:ti_sysbios_family_c64p_TimestampProvider_get64__E)
                  815943c0    00000020                 : BIOS.obj (.text:ti_sysbios_family_c64p_tci6488_TimerSupport_enable__E)
                  815943e0    00000020                 : BIOS.obj (.text:ti_sysbios_family_c66_Cache_wbInv__E)
                  81594400    00000020                 : BIOS.obj (.text:ti_sysbios_gates_GateHwi_Instance_init__F)
                  81594420    00000020                 : BIOS.obj (.text:ti_sysbios_gates_GateHwi_enter__E)
                  81594440    00000020                 : BIOS.obj (.text:ti_sysbios_gates_GateHwi_leave__E)
                  81594460    00000020                 : BIOS.obj (.text:ti_sysbios_gates_GateHwi_query__F)
                  81594480    00000020                 : BIOS.obj (.text:ti_sysbios_gates_GateMutex_query__F)
                  815944a0    00000020     evm_pe66.oe66 (.text:ti_sysbios_hal_Hwi_HwiProxy_Module__startupDone__S)
                  815944c0    00000020     sysbios.lib : BIOS.obj (.text:ti_sysbios_hal_Hwi_Module_startup__F)
                  815944e0    00000020                 : BIOS.obj (.text:ti_sysbios_hal_Timer_Module_startup__F)
                  81594500    00000020     evm_pe66.oe66 (.text:ti_sysbios_hal_Timer_TimerProxy_Module__startupDone__S)
                  81594520    00000020     evm_pe66.oe66 (.text:ti_sysbios_hal_Timer_TimerProxy_getExpiredCounts__E)
                  81594540    00000020     evm_pe66.oe66 (.text:ti_sysbios_hal_Timer_TimerProxy_getPeriod__E)
                  81594560    00000020     evm_pe66.oe66 (.text:ti_sysbios_hal_Timer_TimerProxy_setNextTick__E)
                  81594580    00000020     evm_pe66.oe66 (.text:ti_sysbios_heaps_HeapMem_Module_GateProxy_enter__E)
                  815945a0    00000020     evm_pe66.oe66 (.text:ti_sysbios_heaps_HeapMem_Module_GateProxy_leave__E)
                  815945c0    00000020     sysbios.lib : BIOS.obj (.text:ti_sysbios_heaps_HeapMem_isBlocking__E)
                  815945e0    00000020     evm_pe66.oe66 (.text:ti_sysbios_knl_Clock_Params__init__S)
                  81594600    00000020     sysbios.lib : BIOS.obj (.text:ti_sysbios_knl_Queue_Instance_init__F)
                  81594620    00000020     evm_pe66.oe66 (.text:ti_sysbios_knl_Queue_Object__destruct__S)
                  81594640    00000020     evm_pe66.oe66 (.text:ti_sysbios_knl_Queue_Object__get__S)
                  81594660    00000020     sysbios.lib : BIOS.obj (.text:ti_sysbios_knl_Queue_empty__E)
                  81594680    00000020                 : BIOS.obj (.text:ti_sysbios_knl_Semaphore_reset__E)
                  815946a0    00000020                 : BIOS.obj (.text:ti_sysbios_knl_Swi_disable__E)
                  815946c0    00000020     evm_pe66.oe66 (.text:ti_sysbios_knl_Task_Object__first__S)
                  815946e0    00000020     evm_pe66.oe66 (.text:ti_sysbios_knl_Task_Object__next__S)
                  81594700    00000020     evm_pe66.oe66 (.text:ti_sysbios_knl_Task_Params__init__S)
                  81594720    00000020     evm_pe66.oe66 (.text:ti_sysbios_knl_Task_SupportProxy_Module__startupDone__S)
                  81594740    00000020     sysbios.lib : BIOS.obj (.text:ti_sysbios_knl_Task_disable__E)
                  81594760    00000020                 : BIOS.obj (.text:ti_sysbios_knl_Task_getHookContext__E)
                  81594780    00000020                 : BIOS.obj (.text:ti_sysbios_knl_Task_self__E)
                  815947a0    00000020                 : BIOS.obj (.text:ti_sysbios_knl_Task_setHookContext__E)
                  815947c0    00000020                 : BIOS.obj (.text:ti_sysbios_timers_timer64_Timer_setNextTick__E)
                  815947e0    00000020     ti.targets.rts6000.ae66 : Error.oe66 (.text:xdc_runtime_Error_getMsg__F)
                  81594800    00000020                             : Gate.oe66 (.text:xdc_runtime_Gate_enterSystem__F)
                  81594820    00000020     evm_pe66.oe66 (.text:xdc_runtime_IHeap_alloc)
                  81594840    00000020     evm_pe66.oe66 (.text:xdc_runtime_IHeap_free)
                  81594860    00000020     evm_pe66.oe66 (.text:xdc_runtime_LoggerBuf_Module_GateProxy_enter__E)
                  81594880    00000020     evm_pe66.oe66 (.text:xdc_runtime_LoggerBuf_Module_GateProxy_leave__E)
                  815948a0    00000020     ti.targets.rts6000.ae66 : LoggerBuf.oe66 (.text:xdc_runtime_LoggerBuf_disable__F)
                  815948c0    00000020                             : LoggerBuf.oe66 (.text:xdc_runtime_LoggerBuf_enable__F)
                  815948e0    00000020     evm_pe66.oe66 (.text:xdc_runtime_Memory_HeapProxy_alloc__E)
                  81594900    00000020     evm_pe66.oe66 (.text:xdc_runtime_Memory_HeapProxy_free__E)
                  81594920    00000020     evm_pe66.oe66 (.text:xdc_runtime_Startup_exec__I)
                  81594940    00000020     evm_pe66.oe66 (.text:xdc_runtime_Startup_reset__I)
                  81594960    00000020     ti.targets.rts6000.ae66 : SysStd.oe66 (.text:xdc_runtime_SysStd_exit__F)
                  81594980    00000020                             : SysStd.oe66 (.text:xdc_runtime_SysStd_putch__F)
                  815949a0    00000020                             : SysStd.oe66 (.text:xdc_runtime_SysStd_ready__F)
                  815949c0    00000020     evm_pe66.oe66 (.text:xdc_runtime_System_Module_GateProxy_enter__E)
                  815949e0    00000020     evm_pe66.oe66 (.text:xdc_runtime_System_Module_GateProxy_leave__E)
                  81594a00    00000020     ti.targets.rts6000.ae66 : System.oe66 (.text:xdc_runtime_System_Module_startup__F)
                  81594a20    00000020                             : System.oe66 (.text:xdc_runtime_System_exit__F)
                  81594a40    00000020                             : System.oe66 (.text:xdc_runtime_System_lastFxn__I)
                  81594a60    00000020                             : System.oe66 (.text:xdc_runtime_System_vsprintf__F)
                  81594a80    00000020     evm_pe66.oe66 (.text:xdc_runtime_Text_visitRope__I)

.const     0    81594aa0    00010b1a     
                  81594aa0    00001dc8     resourcemgr.obj (.const:c1)
                  81596868    000018ac     resourcemgr.obj (.const:m)
                  81598114    00000004     nettool.ae66 : telnetd.oe66 (.const:.string)
                  81598118    0000120d     evm_pe66.oe66 (.const:xdc_runtime_Text_charTab__A)
                  81599325    00000003     --HOLE-- [fill = 0]
                  81599328    0000118c     resourcemgr.obj (.const:c2)
                  8159a4b4    0000114f     flash.obj (.const:.string)
                  8159b603    00000d39     information.obj (.const:.string)
                  8159c33c    00000cfd     ndkbenchmark.obj (.const:.string)
                  8159d039    00000c06     diagpage.obj (.const:.string)
                  8159dc3f    00000b8b     ndkloopback.obj (.const:.string)
                  8159e7ca    00000843     flashread.obj (.const:.string)
                  8159f00d    00000003     --HOLE-- [fill = 0]
                  8159f010    000007d4     ti.transport.ndk.nimu.ae66 : nimu_eth.obj (.const:.string)
                  8159f7e4    000007a7     i2cread.obj (.const:.string)
                  8159ff8b    000006da     statistics.obj (.const:.string)
                  815a0665    00000690     webpage.obj (.const:.string)
                  815a0cf5    00000003     --HOLE-- [fill = 0]
                  815a0cf8    00000630     resourcemgr.obj (.const:acc48_le)
                  815a1328    00000435     hpdspua.obj (.const:.string)
                  815a175d    0000042f     flashwrite.obj (.const:.string)
                  815a1b8c    0000042c     sysbios.lib : BIOS.obj (.const:.string)
                  815a1fb8    00000400     evm_pe66.oe66 (.const:ti_sysbios_family_c66_Cache_marvalues__C)
                  815a23b8    00000397     resourcemgr.obj (.const:.string)
                  815a274f    0000034b     tasks.obj (.const:.string)
                  815a2a9a    00000240     diagnostic.obj (.const:.string)
                  815a2cda    000001a7     webserver.obj (.const:.string)
                  815a2e81    00000175     flasherase.obj (.const:.string)
                  815a2ff6    0000014f     os.ae66 : mem.oe66 (.const:.string)
                  815a3145    00000129     nettool.ae66 : httpsend.oe66 (.const:.string)
                  815a326e    00000121     stk6_ppp_pppoe.ae66 : nimuppp.oe66 (.const:.string)
                  815a338f    0000010e                         : route6.oe66 (.const:.string)
                  815a349d    00000109     os.ae66 : task.oe66 (.const:.string)
                  815a35a6    00000002     --HOLE-- [fill = 0]
                  815a35a8    00000101     rts6600_elf.lib : ctype.obj (.const:.string:_ctypes_)
                  815a36a9    000000fa     stk6_ppp_pppoe.ae66 : bind6.oe66 (.const:.string)
                  815a37a3    00000001     --HOLE-- [fill = 0]
                  815a37a4    00000004     ti.targets.rts6000.ae66 : Assert.oe66 (.const:.string)
                  815a37a8    000000dc     evm_pe66.oe66 (.const:xdc_runtime_Text_nodeTab__A)
                  815a3884    000000d9     stk6_ppp_pppoe.ae66 : vlan.oe66 (.const:.string)
                  815a395d    000000d7     nettool.ae66 : httpstr.oe66 (.const:.string)
                  815a3a34    000000cf     stk6_ppp_pppoe.ae66 : rtc.oe66 (.const:.string)
                  815a3b03    000000bf                         : lliout.oe66 (.const:.string)
                  815a3bc2    000000b8                         : node.oe66 (.const:.string)
                  815a3c7a    000000b7                         : icmpv6_ndisc.oe66 (.const:.string)
                  815a3d31    000000b1     nettool.ae66 : dnsclnt.oe66 (.const:.string)
                  815a3de2    000000b1     stk6_ppp_pppoe.ae66 : icmpv6out.oe66 (.const:.string)
                  815a3e93    000000a2                         : nimupppoe.oe66 (.const:.string)
                  815a3f35    00000099                         : lli6.oe66 (.const:.string)
                  815a3fce    00000094                         : nimu.oe66 (.const:.string)
                  815a4062    00000002     --HOLE-- [fill = 0]
                  815a4064    00000090     ndkloopback.obj (.const)
                  815a40f4    00000080     ndkbenchmark.obj (.const)
                  815a4174    0000006c     ti.platform.evm6670l.ae66 : platform.obj (.const)
                  815a41e0    00000064     information.obj (.const)
                  815a4244    00000064     ti.transport.ndk.nimu.ae66 : nimu_eth.obj (.const)
                  815a42a8    00000060     stk6_ppp_pppoe.ae66 : sb.oe66 (.const:.string)
                  815a4308    00000060     ti.drv.pa.ae66 : pa.oe66 (.const:pap_pdsp_const_reg_map)
                  815a4368    0000005a     stk6_ppp_pppoe.ae66 : mld.oe66 (.const:.string)
                  815a43c2    00000058                         : tcp6time.oe66 (.const:.string)
                  815a441a    00000058                         : tcptime.oe66 (.const:.string)
                  815a4472    00000002     --HOLE-- [fill = 0]
                  815a4474    00000058     ti.targets.rts6000.ae66 : Error.oe66 (.const:.string)
                  815a44cc    00000057     stk6_ppp_pppoe.ae66 : udp6.oe66 (.const:.string)
                  815a4523    00000055     ti.platform.evm6670l.ae66 : platform.obj (.const:.string)
                  815a4578    00000008     ti.transport.ndk.nimu.ae66 : nimu_eth.obj (.const:$P$T10$11)
                  815a4580    00000054     stk6_ppp_pppoe.ae66 : sockprot.oe66 (.const:Code2Err)
                  815a45d4    00000050                         : bind.oe66 (.const:.string)
                  815a4624    0000004e                         : rtable.oe66 (.const:.string)
                  815a4672    00000002     --HOLE-- [fill = 0]
                  815a4674    00000048     flashread.obj (.const)
                  815a46bc    00000048     resourcemgr.obj (.const)
                  815a4704    00000047     evm_pe66.oe66 (.const:.string)
                  815a474b    00000044     nettool.ae66 : dnscomn.oe66 (.const:.string)
                  815a478f    00000001     --HOLE-- [fill = 0]
                  815a4790    00000044     i2cread.obj (.const)
                  815a47d4    00000041     nettool.ae66 : httpclie.oe66 (.const:.string)
                  815a4815    00000041     stk6_ppp_pppoe.ae66 : sb6.oe66 (.const:.string)
                  815a4856    00000002     --HOLE-- [fill = 0]
                  815a4858    00000040     ti.targets.rts6000.ae66 : Text.oe66 (.const:.string)
                  815a4898    00000040     flashwrite.obj (.const)
                  815a48d8    00000040     hpdspua.obj (.const)
                  815a4918    0000003e     stk6_ppp_pppoe.ae66 : ipv6.oe66 (.const:.string)
                  815a4956    00000002     --HOLE-- [fill = 0]
                  815a4958    0000003c     diagnostic.obj (.const)
                  815a4994    0000003c     evm_pe66.oe66 (.const:xdc_runtime_LoggerBuf_Module__FXNS__C)
                  815a49d0    0000003b     stk6_ppp_pppoe.ae66 : sock6pcb.oe66 (.const:.string)
                  815a4a0b    00000001     --HOLE-- [fill = 0]
                  815a4a0c    00000038     evm_pe66.oe66 (.const:ti_sysbios_knl_Task_Object__PARAMS__C)
                  815a4a44    00000037     netctrl.ae66 : netctrl.oe66 (.const:.string)
                  815a4a7b    00000001     --HOLE-- [fill = 0]
                  815a4a7c    00000004     platform_osal.obj (.const)
                  815a4a80    00000034     ti.drv.cppi.ae66 : cppi_drv.oe66 (.const:.string:cppiLldVersionStr)
                  815a4ab4    00000004     ti.platform.evm6670l.ae66 : evmc66x_i2c_eeprom.obj (.const)
                  815a4ab8    00000034     ti.drv.qmss.ae66 : qmss_drv.oe66 (.const:.string:qmssLldVersionStr)
                  815a4aec    00000034     flasherase.obj (.const)
                  815a4b20    00000034     evm_pe66.oe66 (.const:xdc_runtime_Startup_sfxnTab__A)
                  815a4b54    00000032     nettool.ae66 : ipaddr.oe66 (.const:.string)
                  815a4b86    00000002     --HOLE-- [fill = 0]
                  815a4b88    00000032     ti.drv.pa.ae66 : pa.oe66 (.const:.string:paLldVersionStr)
                  815a4bba    00000031     nettool.ae66 : dhcpmain.oe66 (.const:.string)
                  815a4beb    00000031     stk6_ppp_pppoe.ae66 : pbm.oe66 (.const:.string)
                  815a4c1c    00000030     tasks.obj (.const)
                  815a4c4c    00000004     ti.platform.evm6670l.ae66 : evmc66x_spi.obj (.const)
                  815a4c50    00000030     evm_pe66.oe66 (.const:ti_sysbios_knl_Task_hooks__A)
                  815a4c80    0000002f     stk6_ppp_pppoe.ae66 : sock.oe66 (.const:.string)
                  815a4caf    00000001     --HOLE-- [fill = 0]
                  815a4cb0    0000002f     ti.csl.ae66 : csl_version.oe66 (.const:csl_section:version)
                  815a4cdf    00000001     --HOLE-- [fill = 0]
                  815a4ce0    0000002c     ti.targets.rts6000.ae66 : Startup.oe66 (.const:.string)
                  815a4d0c    0000002c     flash.obj (.const)
                  815a4d38    0000002c     ti.platform.evm6670l.ae66 : evm66x_nand.obj (.const)
                  815a4d64    00000028     os.ae66 : semaphore.oe66 (.const:.string)
                  815a4d8c    00000028     stk6_ppp_pppoe.ae66 : icmpv6in.oe66 (.const:.string)
                  815a4db4    00000028     evm_pe66.oe66 (.const:ti_sysbios_heaps_HeapMem_Module__FXNS__C)
                  815a4ddc    00000028     webserver.obj (.const)
                  815a4e04    00000028     evm_pe66.oe66 (.const:xdc_runtime_LoggerBuf_Object__PARAMS__C)
                  815a4e2c    00000027     stk6_ppp_pppoe.ae66 : ipv6_exthdrs.oe66 (.const:.string)
                  815a4e53    00000001     --HOLE-- [fill = 0]
                  815a4e54    00000024     evm_pe66.oe66 (.const:ti_sysbios_gates_GateHwi_Module__FXNS__C)
                  815a4e78    00000024     evm_pe66.oe66 (.const:ti_sysbios_gates_GateMutex_Module__FXNS__C)
                  815a4e9c    00000024     evm_pe66.oe66 (.const:ti_sysbios_knl_Clock_Object__PARAMS__C)
                  815a4ec0    00000024     evm_pe66.oe66 (.const:ti_sysbios_knl_Semaphore_Object__PARAMS__C)
                  815a4ee4    00000023     rts6600_elf.lib : _printfi.obj (.const:.string)
                  815a4f07    00000001     --HOLE-- [fill = 0]
                  815a4f08    00000020     ti.targets.rts6000.ae66 : Core-mem.oe66 (.const:.string)
                  815a4f28    00000020     evm_pe66.oe66 (.const:ti_sysbios_gates_GateHwi_Object__DESC__C)
                  815a4f48    00000020     evm_pe66.oe66 (.const:ti_sysbios_gates_GateMutex_Object__DESC__C)
                  815a4f68    00000020     evm_pe66.oe66 (.const:ti_sysbios_heaps_HeapMem_Object__DESC__C)
                  815a4f88    00000020     evm_pe66.oe66 (.const:ti_sysbios_heaps_HeapMem_Object__PARAMS__C)
                  815a4fa8    00000020     evm_pe66.oe66 (.const:ti_sysbios_knl_Clock_Object__DESC__C)
                  815a4fc8    00000020     evm_pe66.oe66 (.const:ti_sysbios_knl_Queue_Object__DESC__C)
                  815a4fe8    00000020     evm_pe66.oe66 (.const:ti_sysbios_knl_Semaphore_Object__DESC__C)
                  815a5008    00000020     evm_pe66.oe66 (.const:ti_sysbios_knl_Task_Object__DESC__C)
                  815a5028    00000020     evm_pe66.oe66 (.const:xdc_runtime_LoggerBuf_Object__DESC__C)
                  815a5048    0000001e     ti.transport.ndk.nimu.ae66 : nimu_eth.obj (.const:$P$T4$5)
                  815a5066    0000001e     nettool.ae66 : daemon.oe66 (.const:.string)
                  815a5084    0000001d     stk6_ppp_pppoe.ae66 : lli.oe66 (.const:.string)
                  815a50a1    00000003     --HOLE-- [fill = 0]
                  815a50a4    0000001c     diagpage.obj (.const)
                  815a50c0    0000001c     statistics.obj (.const)
                  815a50dc    00000004     ti.platform.evm6670l.ae66 : evmc66x_uart.obj (.const)
                  815a50e0    0000001a     evm_pe66.oe66 (.const:xdc_runtime_Startup_sfxnRts__A)
                  815a50fa    00000006     stk6_ppp_pppoe.ae66 : auth.oe66 (.const:.string)
                  815a5100    00000018     ti.transport.ndk.nimu.ae66 : nimu_eth.obj (.const:$P$T3$4)
                  815a5118    00000018     nettool.ae66 : config.oe66 (.const:.string)
                  815a5130    00000018     stk6_ppp_pppoe.ae66 : exec.oe66 (.const:.string)
                  815a5148    00000018     evm_pe66.oe66 (.const:ti_sysbios_gates_GateHwi_Object__PARAMS__C)
                  815a5160    00000018     evm_pe66.oe66 (.const:ti_sysbios_gates_GateMutex_Object__PARAMS__C)
                  815a5178    00000018     evm_pe66.oe66 (.const:ti_sysbios_knl_Queue_Object__PARAMS__C)
                  815a5190    00000017     stk6_ppp_pppoe.ae66 : ipout.oe66 (.const:.string)
                  815a51a7    00000016                         : ipv6out.oe66 (.const:.string)
                  815a51bd    00000003     --HOLE-- [fill = 0]
                  815a51c0    00000014     ti.platform.evm6670l.ae66 : evmc66x_nor.obj (.const)
                  815a51d4    00000013     stk6_ppp_pppoe.ae66 : fileuser.oe66 (.const:.string)
                  815a51e7    00000011                         : tcp6prot.oe66 (.const:.string)
                  815a51f8    00000011                         : tcpprot.oe66 (.const:.string)
                  815a5209    00000003     --HOLE-- [fill = 0]
                  815a520c    00000004     evm_pe66.oe66 (.const:ti_sysbios_BIOS_Module__diagsEnabled__C)
                  815a5210    00000011     ti.targets.rts6000.ae66 : System.oe66 (.const:digtohex)
                  815a5221    00000003     --HOLE-- [fill = 0]
                  815a5224    00000004     evm_pe66.oe66 (.const:ti_sysbios_BIOS_Module__diagsIncluded__C)
                  815a5228    00000010     ti.drv.pa.ae66 : painit.oe66 (.const:paMemAligns)
                  815a5238    00000010     evm_pe66.oe66 (.const:ti_sysbios_family_c64p_EventCombiner_EVTMASK__C)
                  815a5248    0000000e     os.ae66 : ossys.oe66 (.const:.string)
                  815a5256    0000000e     stk6_ppp_pppoe.ae66 : timer.oe66 (.const:.string)
                  815a5264    0000000c     os.ae66 : efs.oe66 (.const:.string)
                  815a5270    0000000c     evm_pe66.oe66 (.const:ti_sysbios_family_c66_Cache_initSize__C)
                  815a527c    0000000b     stk6_ppp_pppoe.ae66 : route.oe66 (.const:.string)
                  815a5287    00000001     --HOLE-- [fill = 0]
                  815a5288    00000008     ti.transport.ndk.nimu.ae66 : nimu_eth.obj (.const:$P$T5$6)
                  815a5290    00000008     ti.targets.rts6000.ae66 : System.oe66 (.const:.string)
                  815a5298    00000008     ti.platform.evm6670l.ae66 : evmc66x_fpga.obj (.const)
                  815a52a0    00000008     evm_pe66.oe66 (.const:ti_sysbios_knl_Idle_funcList__A)
                  815a52a8    00000008     evm_pe66.oe66 (.const:ti_sysbios_knl_Idle_funcList__C)
                  815a52b0    00000008     evm_pe66.oe66 (.const:ti_sysbios_knl_Task_hooks__C)
                  815a52b8    00000008     evm_pe66.oe66 (.const:xdc_runtime_Startup_firstFxns__A)
                  815a52c0    00000008     evm_pe66.oe66 (.const:xdc_runtime_Startup_firstFxns__C)
                  815a52c8    00000008     evm_pe66.oe66 (.const:xdc_runtime_Startup_lastFxns__A)
                  815a52d0    00000008     evm_pe66.oe66 (.const:xdc_runtime_Startup_lastFxns__C)
                  815a52d8    00000006     ti.platform.evm6670l.ae66 : evm66x_nand.obj (.const:.string:$P$T0$1)
                  815a52de    00000002     --HOLE-- [fill = 0]
                  815a52e0    00000006     ti.transport.ndk.nimu.ae66 : nimu_eth.obj (.const:.string:$P$T0$1)
                  815a52e6    00000002     --HOLE-- [fill = 0]
                  815a52e8    00000006                                : nimu_eth.obj (.const:.string:$P$T6$7)
                  815a52ee    00000002     --HOLE-- [fill = 0]
                  815a52f0    00000006                                : nimu_eth.obj (.const:.string:$P$T7$8)
                  815a52f6    00000002     --HOLE-- [fill = 0]
                  815a52f8    00000004     evm_pe66.oe66 (.const:ti_sysbios_BIOS_Module__diagsMask__C)
                  815a52fc    00000004     evm_pe66.oe66 (.const:ti_sysbios_BIOS_installedErrorHook__C)
                  815a5300    00000004     evm_pe66.oe66 (.const:ti_sysbios_family_c62_TaskSupport_stackAlignment__C)
                  815a5304    00000004     evm_pe66.oe66 (.const:ti_sysbios_family_c64p_EventCombiner_E_unpluggedEvent__C)
                  815a5308    00000004     evm_pe66.oe66 (.const:ti_sysbios_family_c64p_Exception_E_exceptionMin__C)
                  815a530c    00000004     evm_pe66.oe66 (.const:ti_sysbios_family_c64p_Exception_exceptionHook__C)
                  815a5310    00000004     evm_pe66.oe66 (.const:ti_sysbios_family_c64p_Exception_externalHook__C)
                  815a5314    00000004     evm_pe66.oe66 (.const:ti_sysbios_family_c64p_Exception_internalHook__C)
                  815a5318    00000004     evm_pe66.oe66 (.const:ti_sysbios_family_c64p_Exception_nmiHook__C)
                  815a531c    00000004     evm_pe66.oe66 (.const:ti_sysbios_family_c64p_Hwi_LD_end__C)
                  815a5320    00000004     evm_pe66.oe66 (.const:ti_sysbios_family_c64p_Hwi_LM_begin__C)
                  815a5324    00000004     evm_pe66.oe66 (.const:ti_sysbios_family_c64p_Hwi_Module__diagsEnabled__C)
                  815a5328    00000004     evm_pe66.oe66 (.const:ti_sysbios_family_c64p_Hwi_Module__diagsIncluded__C)
                  815a532c    00000004     evm_pe66.oe66 (.const:ti_sysbios_family_c64p_Hwi_Module__diagsMask__C)
                  815a5330    00000004     evm_pe66.oe66 (.const:ti_sysbios_family_c64p_Hwi_Module__loggerFxn1__C)
                  815a5334    00000004     evm_pe66.oe66 (.const:ti_sysbios_family_c64p_Hwi_Module__loggerFxn8__C)
                  815a5338    00000004     evm_pe66.oe66 (.const:ti_sysbios_family_c64p_Hwi_Module__loggerObj__C)
                  815a533c    00000004     evm_pe66.oe66 (.const:ti_sysbios_family_c66_Cache_atomicBlockSize__C)
                  815a5340    00000004     evm_pe66.oe66 (.const:ti_sysbios_gates_GateMutex_A_badContext__C)
                  815a5344    00000004     evm_pe66.oe66 (.const:ti_sysbios_gates_GateMutex_Instance_State_sem__O)
                  815a5348    00000004     evm_pe66.oe66 (.const:ti_sysbios_gates_GateMutex_Module__diagsEnabled__C)
                  815a534c    00000004     evm_pe66.oe66 (.const:ti_sysbios_gates_GateMutex_Module__diagsIncluded__C)
                  815a5350    00000004     evm_pe66.oe66 (.const:ti_sysbios_gates_GateMutex_Module__diagsMask__C)
                  815a5354    00000004     evm_pe66.oe66 (.const:ti_sysbios_hal_Hwi_E_stackOverflow__C)
                  815a5358    00000004     evm_pe66.oe66 (.const:ti_sysbios_heaps_HeapMem_A_align__C)
                  815a535c    00000004     evm_pe66.oe66 (.const:ti_sysbios_heaps_HeapMem_A_heapSize__C)
                  815a5360    00000004     evm_pe66.oe66 (.const:ti_sysbios_heaps_HeapMem_A_invalidFree__C)
                  815a5364    00000004     evm_pe66.oe66 (.const:ti_sysbios_heaps_HeapMem_A_zeroBlock__C)
                  815a5368    00000004     evm_pe66.oe66 (.const:ti_sysbios_heaps_HeapMem_E_memory__C)
                  815a536c    00000004     evm_pe66.oe66 (.const:ti_sysbios_heaps_HeapMem_Module__diagsEnabled__C)
                  815a5370    00000004     evm_pe66.oe66 (.const:ti_sysbios_heaps_HeapMem_Module__diagsIncluded__C)
                  815a5374    00000004     evm_pe66.oe66 (.const:ti_sysbios_heaps_HeapMem_Module__diagsMask__C)
                  815a5378    00000004     evm_pe66.oe66 (.const:ti_sysbios_heaps_HeapMem_Module__gateObj__C)
                  815a537c    00000004     evm_pe66.oe66 (.const:ti_sysbios_heaps_HeapMem_Object__count__C)
                  815a5380    00000004     evm_pe66.oe66 (.const:ti_sysbios_heaps_HeapMem_reqAlignMask__C)
                  815a5384    00000004     evm_pe66.oe66 (.const:ti_sysbios_heaps_HeapMem_reqAlign__C)
                  815a5388    00000004     evm_pe66.oe66 (.const:ti_sysbios_knl_Clock_A_badThreadType__C)
                  815a538c    00000004     evm_pe66.oe66 (.const:ti_sysbios_knl_Clock_LM_begin__C)
                  815a5390    00000004     evm_pe66.oe66 (.const:ti_sysbios_knl_Clock_LM_tick__C)
                  815a5394    00000004     evm_pe66.oe66 (.const:ti_sysbios_knl_Clock_LW_delayed__C)
                  815a5398    00000004     evm_pe66.oe66 (.const:ti_sysbios_knl_Clock_Module_State_clockQ__O)
                  815a539c    00000004     evm_pe66.oe66 (.const:ti_sysbios_knl_Clock_Module__diagsEnabled__C)
                  815a53a0    00000004     evm_pe66.oe66 (.const:ti_sysbios_knl_Clock_Module__diagsIncluded__C)
                  815a53a4    00000004     evm_pe66.oe66 (.const:ti_sysbios_knl_Clock_Module__diagsMask__C)
                  815a53a8    00000004     evm_pe66.oe66 (.const:ti_sysbios_knl_Clock_Module__loggerFxn1__C)
                  815a53ac    00000004     evm_pe66.oe66 (.const:ti_sysbios_knl_Clock_Module__loggerFxn2__C)
                  815a53b0    00000004     evm_pe66.oe66 (.const:ti_sysbios_knl_Clock_Module__loggerObj__C)
                  815a53b4    00000004     evm_pe66.oe66 (.const:ti_sysbios_knl_Clock_tickMode__C)
                  815a53b8    00000004     evm_pe66.oe66 (.const:ti_sysbios_knl_Clock_tickPeriod__C)
                  815a53bc    00000004     evm_pe66.oe66 (.const:ti_sysbios_knl_Clock_tickSource__C)
                  815a53c0    00000004     evm_pe66.oe66 (.const:ti_sysbios_knl_Semaphore_A_badContext__C)
                  815a53c4    00000004     evm_pe66.oe66 (.const:ti_sysbios_knl_Semaphore_A_noEvents__C)
                  815a53c8    00000004     evm_pe66.oe66 (.const:ti_sysbios_knl_Semaphore_A_overflow__C)
                  815a53cc    00000004     evm_pe66.oe66 (.const:ti_sysbios_knl_Semaphore_Instance_State_pendQ__O)
                  815a53d0    00000004     evm_pe66.oe66 (.const:ti_sysbios_knl_Semaphore_LM_pend__C)
                  815a53d4    00000004     evm_pe66.oe66 (.const:ti_sysbios_knl_Semaphore_LM_post__C)
                  815a53d8    00000004     evm_pe66.oe66 (.const:ti_sysbios_knl_Semaphore_Module__diagsEnabled__C)
                  815a53dc    00000004     evm_pe66.oe66 (.const:ti_sysbios_knl_Semaphore_Module__diagsIncluded__C)
                  815a53e0    00000004     evm_pe66.oe66 (.const:ti_sysbios_knl_Semaphore_Module__diagsMask__C)
                  815a53e4    00000004     evm_pe66.oe66 (.const:ti_sysbios_knl_Semaphore_Module__loggerFxn2__C)
                  815a53e8    00000004     evm_pe66.oe66 (.const:ti_sysbios_knl_Semaphore_Module__loggerFxn4__C)
                  815a53ec    00000004     evm_pe66.oe66 (.const:ti_sysbios_knl_Semaphore_Module__loggerObj__C)
                  815a53f0    00000004     evm_pe66.oe66 (.const:ti_sysbios_knl_Swi_LD_end__C)
                  815a53f4    00000004     evm_pe66.oe66 (.const:ti_sysbios_knl_Swi_LM_begin__C)
                  815a53f8    00000004     evm_pe66.oe66 (.const:ti_sysbios_knl_Swi_LM_post__C)
                  815a53fc    00000004     evm_pe66.oe66 (.const:ti_sysbios_knl_Swi_Module__diagsEnabled__C)
                  815a5400    00000004     evm_pe66.oe66 (.const:ti_sysbios_knl_Swi_Module__diagsIncluded__C)
                  815a5404    00000004     evm_pe66.oe66 (.const:ti_sysbios_knl_Swi_Module__diagsMask__C)
                  815a5408    00000004     evm_pe66.oe66 (.const:ti_sysbios_knl_Swi_Module__loggerFxn1__C)
                  815a540c    00000004     evm_pe66.oe66 (.const:ti_sysbios_knl_Swi_Module__loggerFxn4__C)
                  815a5410    00000004     evm_pe66.oe66 (.const:ti_sysbios_knl_Swi_Module__loggerObj__C)
                  815a5414    00000004     evm_pe66.oe66 (.const:ti_sysbios_knl_Swi_Object__count__C)
                  815a5418    00000004     evm_pe66.oe66 (.const:ti_sysbios_knl_Task_A_badPriority__C)
                  815a541c    00000004     evm_pe66.oe66 (.const:ti_sysbios_knl_Task_A_badTaskState__C)
                  815a5420    00000004     evm_pe66.oe66 (.const:ti_sysbios_knl_Task_A_badThreadType__C)
                  815a5424    00000004     evm_pe66.oe66 (.const:ti_sysbios_knl_Task_A_badTimeout__C)
                  815a5428    00000004     evm_pe66.oe66 (.const:ti_sysbios_knl_Task_A_noPendElem__C)
                  815a542c    00000004     evm_pe66.oe66 (.const:ti_sysbios_knl_Task_E_spOutOfBounds__C)
                  815a5430    00000004     evm_pe66.oe66 (.const:ti_sysbios_knl_Task_E_stackOverflow__C)
                  815a5434    00000004     evm_pe66.oe66 (.const:ti_sysbios_knl_Task_LD_block__C)
                  815a5438    00000004     evm_pe66.oe66 (.const:ti_sysbios_knl_Task_LD_exit__C)
                  815a543c    00000004     evm_pe66.oe66 (.const:ti_sysbios_knl_Task_LD_ready__C)
                  815a5440    00000004     evm_pe66.oe66 (.const:ti_sysbios_knl_Task_LM_setPri__C)
                  815a5444    00000004     evm_pe66.oe66 (.const:ti_sysbios_knl_Task_LM_sleep__C)
                  815a5448    00000004     evm_pe66.oe66 (.const:ti_sysbios_knl_Task_LM_switch__C)
                  815a544c    00000004     evm_pe66.oe66 (.const:ti_sysbios_knl_Task_Module_State_inactiveQ__O)
                  815a5450    00000004     evm_pe66.oe66 (.const:ti_sysbios_knl_Task_Module_State_terminatedQ__O)
                  815a5454    00000004     evm_pe66.oe66 (.const:ti_sysbios_knl_Task_Module__diagsEnabled__C)
                  815a5458    00000004     evm_pe66.oe66 (.const:ti_sysbios_knl_Task_Module__diagsIncluded__C)
                  815a545c    00000004     evm_pe66.oe66 (.const:ti_sysbios_knl_Task_Module__diagsMask__C)
                  815a5460    00000004     evm_pe66.oe66 (.const:ti_sysbios_knl_Task_Module__loggerFxn2__C)
                  815a5464    00000004     evm_pe66.oe66 (.const:ti_sysbios_knl_Task_Module__loggerFxn4__C)
                  815a5468    00000004     evm_pe66.oe66 (.const:ti_sysbios_knl_Task_Module__loggerObj__C)
                  815a546c    00000004     evm_pe66.oe66 (.const:ti_sysbios_knl_Task_Object__count__C)
                  815a5470    00000004     evm_pe66.oe66 (.const:ti_sysbios_knl_Task_Object__heap__C)
                  815a5474    00000004     evm_pe66.oe66 (.const:ti_sysbios_knl_Task_allBlockedFunc__C)
                  815a5478    00000004     evm_pe66.oe66 (.const:ti_sysbios_knl_Task_defaultStackHeap__C)
                  815a547c    00000004     evm_pe66.oe66 (.const:ti_sysbios_knl_Task_defaultStackSize__C)
                  815a5480    00000004     evm_pe66.oe66 (.const:ti_sysbios_knl_Task_numConstructedTasks__C)
                  815a5484    00000004     evm_pe66.oe66 (.const:ti_sysbios_knl_Task_numPriorities__C)
                  815a5488    00000004     evm_pe66.oe66 (.const:ti_sysbios_timers_timer64_Timer_A_notAvailable__C)
                  815a548c    00000004     evm_pe66.oe66 (.const:ti_sysbios_timers_timer64_Timer_E_cannotSupport__C)
                  815a5490    00000004     evm_pe66.oe66 (.const:ti_sysbios_timers_timer64_Timer_Module__diagsEnabled__C)
                  815a5494    00000004     evm_pe66.oe66 (.const:ti_sysbios_timers_timer64_Timer_Module__diagsIncluded__C)
                  815a5498    00000004     evm_pe66.oe66 (.const:ti_sysbios_timers_timer64_Timer_Module__diagsMask__C)
                  815a549c    00000004     evm_pe66.oe66 (.const:ti_sysbios_timers_timer64_Timer_anyMask__C)
                  815a54a0    00000004     evm_pe66.oe66 (.const:ti_sysbios_timers_timer64_Timer_freqDivisor__C)
                  815a54a4    00000004     evm_pe66.oe66 (.const:ti_sysbios_timers_timer64_Timer_numLocalTimers__C)
                  815a54a8    00000004     evm_pe66.oe66 (.const:ti_sysbios_timers_timer64_Timer_numTimerDevices__C)
                  815a54ac    00000004     evm_pe66.oe66 (.const:xdc_runtime_Assert_E_assertFailed__C)
                  815a54b0    00000004     evm_pe66.oe66 (.const:xdc_runtime_Core_A_initializedParams__C)
                  815a54b4    00000004     evm_pe66.oe66 (.const:xdc_runtime_Core_Module__diagsEnabled__C)
                  815a54b8    00000004     evm_pe66.oe66 (.const:xdc_runtime_Core_Module__diagsIncluded__C)
                  815a54bc    00000004     evm_pe66.oe66 (.const:xdc_runtime_Core_Module__diagsMask__C)
                  815a54c0    00000004     evm_pe66.oe66 (.const:xdc_runtime_Error_E_generic__C)
                  815a54c4    00000004     evm_pe66.oe66 (.const:xdc_runtime_Error_E_memory__C)
                  815a54c8    00000004     evm_pe66.oe66 (.const:xdc_runtime_Error_Module__diagsEnabled__C)
                  815a54cc    00000004     evm_pe66.oe66 (.const:xdc_runtime_Error_Module__diagsIncluded__C)
                  815a54d0    00000004     evm_pe66.oe66 (.const:xdc_runtime_Error_Module__diagsMask__C)
                  815a54d4    00000004     evm_pe66.oe66 (.const:xdc_runtime_Error_Module__loggerFxn8__C)
                  815a54d8    00000004     evm_pe66.oe66 (.const:xdc_runtime_Error_Module__loggerObj__C)
                  815a54dc    00000004     evm_pe66.oe66 (.const:xdc_runtime_Error_policy__C)
                  815a54e0    00000004     evm_pe66.oe66 (.const:xdc_runtime_Error_raiseHook__C)
                  815a54e4    00000004     evm_pe66.oe66 (.const:xdc_runtime_IFilterLogger_Interface__BASE__C)
                  815a54e8    00000004     evm_pe66.oe66 (.const:xdc_runtime_IGateProvider_Interface__BASE__C)
                  815a54ec    00000004     evm_pe66.oe66 (.const:xdc_runtime_IHeap_Interface__BASE__C)
                  815a54f0    00000004     evm_pe66.oe66 (.const:xdc_runtime_ILogger_Interface__BASE__C)
                  815a54f4    00000004     evm_pe66.oe66 (.const:xdc_runtime_IModule_Interface__BASE__C)
                  815a54f8    00000004     evm_pe66.oe66 (.const:xdc_runtime_Log_L_error__C)
                  815a54fc    00000004     evm_pe66.oe66 (.const:xdc_runtime_LoggerBuf_E_badLevel__C)
                  815a5500    00000004     evm_pe66.oe66 (.const:xdc_runtime_LoggerBuf_Module__gateObj__C)
                  815a5504    00000004     evm_pe66.oe66 (.const:xdc_runtime_LoggerBuf_Object__count__C)
                  815a5508    00000004     evm_pe66.oe66 (.const:xdc_runtime_LoggerBuf_statusLogger__C)
                  815a550c    00000004     evm_pe66.oe66 (.const:xdc_runtime_Memory_defaultHeapInstance__C)
                  815a5510    00000004     evm_pe66.oe66 (.const:xdc_runtime_Startup_execImpl__C)
                  815a5514    00000004     evm_pe66.oe66 (.const:xdc_runtime_Startup_maxPasses__C)
                  815a5518    00000004     evm_pe66.oe66 (.const:xdc_runtime_Startup_sfxnRts__C)
                  815a551c    00000004     evm_pe66.oe66 (.const:xdc_runtime_Startup_sfxnTab__C)
                  815a5520    00000004     evm_pe66.oe66 (.const:xdc_runtime_System_Module__gateObj__C)
                  815a5524    00000004     evm_pe66.oe66 (.const:xdc_runtime_System_extendFxn__C)
                  815a5528    00000004     evm_pe66.oe66 (.const:xdc_runtime_System_maxAtexitHandlers__C)
                  815a552c    00000004     evm_pe66.oe66 (.const:xdc_runtime_Text_charTab__C)
                  815a5530    00000004     evm_pe66.oe66 (.const:xdc_runtime_Text_nameEmpty__C)
                  815a5534    00000004     evm_pe66.oe66 (.const:xdc_runtime_Text_nameStatic__C)
                  815a5538    00000004     evm_pe66.oe66 (.const:xdc_runtime_Text_nameUnknown__C)
                  815a553c    00000004     evm_pe66.oe66 (.const:xdc_runtime_Text_nodeTab__C)
                  815a5540    00000004     evm_pe66.oe66 (.const:xdc_runtime_Text_visitRopeFxn__C)
                  815a5544    00000002     evm_pe66.oe66 (.const:ti_sysbios_BIOS_Module__id__C)
                  815a5546    00000002     --HOLE-- [fill = 0]
                  815a5548    00000002     evm_pe66.oe66 (.const:ti_sysbios_family_c64p_EventCombiner_Module__id__C)
                  815a554a    00000002     --HOLE-- [fill = 0]
                  815a554c    00000002     evm_pe66.oe66 (.const:ti_sysbios_family_c64p_Exception_Module__id__C)
                  815a554e    00000002     --HOLE-- [fill = 0]
                  815a5550    00000002     evm_pe66.oe66 (.const:ti_sysbios_family_c64p_Hwi_Module__id__C)
                  815a5552    00000002     --HOLE-- [fill = 0]
                  815a5554    00000002     evm_pe66.oe66 (.const:ti_sysbios_family_c64p_Hwi_Module__loggerDefined__C)
                  815a5556    00000002     --HOLE-- [fill = 0]
                  815a5558    00000002     evm_pe66.oe66 (.const:ti_sysbios_gates_GateMutex_Module__id__C)
                  815a555a    00000002     --HOLE-- [fill = 0]
                  815a555c    00000002     evm_pe66.oe66 (.const:ti_sysbios_hal_Hwi_Module__id__C)
                  815a555e    00000002     --HOLE-- [fill = 0]
                  815a5560    00000002     evm_pe66.oe66 (.const:ti_sysbios_heaps_HeapMem_Module__id__C)
                  815a5562    00000002     --HOLE-- [fill = 0]
                  815a5564    00000002     evm_pe66.oe66 (.const:ti_sysbios_knl_Clock_Module__id__C)
                  815a5566    00000002     --HOLE-- [fill = 0]
                  815a5568    00000002     evm_pe66.oe66 (.const:ti_sysbios_knl_Clock_Module__loggerDefined__C)
                  815a556a    00000002     --HOLE-- [fill = 0]
                  815a556c    00000002     evm_pe66.oe66 (.const:ti_sysbios_knl_Semaphore_Module__id__C)
                  815a556e    00000002     --HOLE-- [fill = 0]
                  815a5570    00000002     evm_pe66.oe66 (.const:ti_sysbios_knl_Semaphore_Module__loggerDefined__C)
                  815a5572    00000002     --HOLE-- [fill = 0]
                  815a5574    00000002     evm_pe66.oe66 (.const:ti_sysbios_knl_Swi_Module__id__C)
                  815a5576    00000002     --HOLE-- [fill = 0]
                  815a5578    00000002     evm_pe66.oe66 (.const:ti_sysbios_knl_Swi_Module__loggerDefined__C)
                  815a557a    00000002     --HOLE-- [fill = 0]
                  815a557c    00000002     evm_pe66.oe66 (.const:ti_sysbios_knl_Task_Module__id__C)
                  815a557e    00000002     --HOLE-- [fill = 0]
                  815a5580    00000002     evm_pe66.oe66 (.const:ti_sysbios_knl_Task_Module__loggerDefined__C)
                  815a5582    00000002     --HOLE-- [fill = 0]
                  815a5584    00000002     evm_pe66.oe66 (.const:ti_sysbios_knl_Task_deleteTerminatedTasks__C)
                  815a5586    00000002     --HOLE-- [fill = 0]
                  815a5588    00000002     evm_pe66.oe66 (.const:ti_sysbios_knl_Task_initStackFlag__C)
                  815a558a    00000002     --HOLE-- [fill = 0]
                  815a558c    00000002     evm_pe66.oe66 (.const:ti_sysbios_timers_timer64_Timer_Module__id__C)
                  815a558e    00000002     --HOLE-- [fill = 0]
                  815a5590    00000002     evm_pe66.oe66 (.const:ti_sysbios_timers_timer64_Timer_startupNeeded__C)
                  815a5592    00000002     --HOLE-- [fill = 0]
                  815a5594    00000002     evm_pe66.oe66 (.const:xdc_runtime_Core_Module__id__C)
                  815a5596    00000002     --HOLE-- [fill = 0]
                  815a5598    00000002     evm_pe66.oe66 (.const:xdc_runtime_Error_Module__loggerDefined__C)
                  815a559a    00000002     --HOLE-- [fill = 0]
                  815a559c    00000002     evm_pe66.oe66 (.const:xdc_runtime_Error_maxDepth__C)
                  815a559e    00000002     --HOLE-- [fill = 0]
                  815a55a0    00000002     evm_pe66.oe66 (.const:xdc_runtime_LoggerBuf_Module__id__C)
                  815a55a2    00000002     --HOLE-- [fill = 0]
                  815a55a4    00000002     evm_pe66.oe66 (.const:xdc_runtime_LoggerBuf_filterByLevel__C)
                  815a55a6    00000002     --HOLE-- [fill = 0]
                  815a55a8    00000002     evm_pe66.oe66 (.const:xdc_runtime_Memory_Module__id__C)
                  815a55aa    00000002     --HOLE-- [fill = 0]
                  815a55ac    00000002     evm_pe66.oe66 (.const:xdc_runtime_Text_charCnt__C)
                  815a55ae    00000002     --HOLE-- [fill = 0]
                  815a55b0    00000002     evm_pe66.oe66 (.const:xdc_runtime_Text_isLoaded__C)
                  815a55b2    00000002     --HOLE-- [fill = 0]
                  815a55b4    00000002     evm_pe66.oe66 (.const:xdc_runtime_Text_registryModsLastId__C)
                  815a55b6    00000002     --HOLE-- [fill = 0]
                  815a55b8    00000002     evm_pe66.oe66 (.const:xdc_runtime_Text_unnamedModsLastId__C)

.fardata.1 
*          0    815a55c0    00000040     
                  815a55c0    00000040     netctrl.ae66 : netsrv.oe66 (.fardata:CloseOrder)

.far       0    815a5600    0000e6f4     
                  815a5600    0000c1c0     os.ae66 : mem_data.oe66 (.far:NDK_MMBUFFER) [fill = 0]
                  815b17c0    00000818     evm_pe66.oe66 (.far) [fill = 0]
                  815b1fd8    00000028     stk6_ppp_pppoe.ae66 : vlan.oe66 (.far) [fill = 0]
                  815b2000    0000066a     ndkloopback.obj (.far) [fill = 0]
                  815b266a    00000002     --HOLE--
                  815b266c    00000004     stk6_ppp_pppoe.ae66 : rawethsock_pcb.oe66 (.far) [fill = 0]
                  815b2670    00000660     nettool.ae66 : daemon.oe66 (.far) [fill = 0]
                  815b2cd0    00000400     webserver.obj (.far) [fill = 0]
                  815b30d0    000001e4     hpdspua.obj (.far) [fill = 0]
                  815b32b4    00000004     --HOLE--
                  815b32b8    00000140     rts6600_elf.lib : defs.obj (.far) [fill = 0]
                  815b33f8    00000120     ti.drv.qmss.ae66 : qmss_drv.oe66 (.far) [fill = 0]
                  815b3518    00000008     rts6600_elf.lib : trgdrv.obj (.far) [fill = 0]
                  815b3520    00000110     stk6_ppp_pppoe.ae66 : igmp.oe66 (.far) [fill = 0]
                  815b3630    000000d8     netctrl.ae66 : netsrv.oe66 (.far) [fill = 0]
                  815b3708    000000c8     stk6_ppp_pppoe.ae66 : ipv6.oe66 (.far) [fill = 0]
                  815b37d0    000000c4                         : tcp.oe66 (.far) [fill = 0]
                  815b3894    000000b8                         : tcp6in.oe66 (.far) [fill = 0]
                  815b394c    00000004     --HOLE--
                  815b3950    0000009c                         : icmp.oe66 (.far) [fill = 0]
                  815b39ec    00000004     --HOLE--
                  815b39f0    0000007c     os.ae66 : mem.oe66 (.far) [fill = 0]
                  815b3a6c    00000068     stk6_ppp_pppoe.ae66 : ip.oe66 (.far) [fill = 0]
                  815b3ad4    00000064                         : nimu.oe66 (.far) [fill = 0]
                  815b3b38    00000044     ti.platform.evm6670l.ae66 : evmc66x_i2c_eeprom.obj (.far) [fill = 0]
                  815b3b7c    00000004     --HOLE--
                  815b3b80    00000034     ndkbenchmark.obj (.far) [fill = 0]
                  815b3bb4    00000030     stk6_ppp_pppoe.ae66 : udp.oe66 (.far) [fill = 0]
                  815b3be4    00000004     --HOLE--
                  815b3be8    00000030     ti.transport.ndk.nimu.ae66 : nimu_eth.obj (.far) [fill = 0]
                  815b3c18    00000024     stk6_ppp_pppoe.ae66 : udp6.oe66 (.far) [fill = 0]
                  815b3c3c    00000004     --HOLE--
                  815b3c40    00000020     resourcemgr.obj (.far) [fill = 0]
                  815b3c60    0000001c     os.ae66 : mem_data.oe66 (.far:NDK_MMBUFFER1)
                  815b3c7c    00000018     stk6_ppp_pppoe.ae66 : icmpv6.oe66 (.far) [fill = 0]
                  815b3c94    0000000c                         : pbm.oe66 (.far) [fill = 0]
                  815b3ca0    00000014                         : rtc.oe66 (.far) [fill = 0]
                  815b3cb4    00000010     netctrl.ae66 : netctrl.oe66 (.far) [fill = 0]
                  815b3cc4    00000010     stk6_ppp_pppoe.ae66 : raw.oe66 (.far) [fill = 0]
                  815b3cd4    00000010                         : raw6.oe66 (.far) [fill = 0]
                  815b3ce4    00000010                         : raweth.oe66 (.far) [fill = 0]

.fardata.2 
*          0    815b3d00    000014e2     
                  815b3d00    000005e0     evm_pe66.oe66 (.fardata)
                  815b42e0    000001e0     rts6600_elf.lib : defs.obj (.fardata:_ftable)
                  815b44c0    00000140     resourcemgr.obj (.fardata:cppiGblCfgParams)
                  815b4600    00000120     resourcemgr.obj (.fardata:qmssGblCfgParams)
                  815b4720    000000d8     evm_pe66.oe66 (.fardata:ti_sysbios_knl_Task_Object__table__V)
                  815b47f8    000000c0     evm_pe66.oe66 (.fardata:ti_sysbios_timers_timer64_Timer_Module_State_0_device__A)
                  815b48b8    000000b4     stk6_ppp_pppoe.ae66 : exec.oe66 (.fardata)
                  815b496c    00000004     rts6600_elf.lib : defs.obj (.fardata)
                  815b4970    000000a0                     : lowlev.obj (.fardata:_stream)
                  815b4a10    00000080     evm_pe66.oe66 (.fardata:ti_sysbios_knl_Swi_Module_State_0_readyQ__A)
                  815b4a90    00000080     evm_pe66.oe66 (.fardata:ti_sysbios_knl_Task_Module_State_0_readyQ__A)
                  815b4b10    00000078     hpdspua.obj (.fardata:ServiceStatus)
                  815b4b88    00000078     rts6600_elf.lib : lowlev.obj (.fardata:_device)
                  815b4c00    00000078     evm_pe66.oe66 (.fardata:ti_sysbios_family_c64p_Hwi_Object__table__V)
                  815b4c78    00000008     ti.transport.ndk.nimu.ae66 : nimu_eth.obj (.fardata:NIMUDeviceTable)
                  815b4c80    00000050     nettool.ae66 : dnsclnt.oe66 (.fardata:DNSErrorStrings)
                  815b4cd0    00000050     stk6_ppp_pppoe.ae66 : exec.oe66 (.fardata:tasks)
                  815b4d20    0000004d     nettool.ae66 : dhcptags.oe66 (.fardata:DHCPTypeCode)
                  815b4d6d    00000003     --HOLE--
                  815b4d70    0000004c     evm_pe66.oe66 (.fardata:ti_sysbios_timers_timer64_Timer_Object__table__V)
                  815b4dbc    00000004     rts6600_elf.lib : dtor_list.obj (.fardata)
                  815b4dc0    00000040     netctrl.ae66 : netsrv.oe66 (.fardata:OpenOrder)
                  815b4e00    00000040     stk6_ppp_pppoe.ae66 : md5.oe66 (.fardata:PADDING)
                  815b4e40    00000040     nettool.ae66 : httpsend.oe66 (.fardata:codestr)
                  815b4e80    00000040     evm_pe66.oe66 (.fardata:ti_sysbios_gates_GateMutex_Object__table__V)
                  815b4ec0    00000040     evm_pe66.oe66 (.fardata:ti_sysbios_timers_timer64_Timer_Module_State_0_gctrl__A)
                  815b4f00    00000040     evm_pe66.oe66 (.fardata:ti_sysbios_timers_timer64_Timer_Module_State_0_handles__A)
                  815b4f40    00000040     evm_pe66.oe66 (.fardata:ti_sysbios_timers_timer64_Timer_Module_State_0_intFreqs__A)
                  815b4f80    00000034     stk6_ppp_pppoe.ae66 : tcp6time.oe66 (.fardata:tcp_backoff)
                  815b4fb4    0000000c     rts6600_elf.lib : exit.obj (.fardata)
                  815b4fc0    00000034     stk6_ppp_pppoe.ae66 : tcptime.oe66 (.fardata:tcp_backoff)
                  815b4ff4    00000004     rts6600_elf.lib : errno.obj (.fardata)
                  815b4ff8    00000030     evm_pe66.oe66 (.fardata:ti_sysbios_knl_Swi_Object__table__V)
                  815b5028    0000002c     information.obj (.fardata:States)
                  815b5054    00000024     os.ae66 : ossys.oe66 (.fardata)
                  815b5078    00000024     evm_pe66.oe66 (.fardata:xdc_runtime_LoggerBuf_Object__table__V)
                  815b509c    00000004     rts6600_elf.lib : strtok.obj (.fardata)
                  815b50a0    00000020     ti.drv.qmss.ae66 : qmss_drv.oe66 (.fardata:Qmss_highEoiVector)
                  815b50c0    00000020     stk6_ppp_pppoe.ae66 : rtc.oe66 (.fardata:pstrMsgName)
                  815b50e0    00000020     evm_pe66.oe66 (.fardata:xdc_runtime_System_Module_State_0_atexitHandlers__A)
                  815b5100    00000014     hpdspua.obj (.fardata:ReportStr)
                  815b5114    00000004     ti.drv.cppi.ae66 : cppi_drv.oe66 (.fardata)
                  815b5118    00000014     hpdspua.obj (.fardata:StatusStr)
                  815b512c    00000004     ti.drv.pa.ae66 : painit.oe66 (.fardata)
                  815b5130    00000014     stk6_ppp_pppoe.ae66 : sock6pcb.oe66 (.fardata:pSockList)
                  815b5144    00000008     rts6600_elf.lib : _lock.obj (.fardata)
                  815b514c    00000004     --HOLE--
                  815b5150    00000014     stk6_ppp_pppoe.ae66 : sockpcb.oe66 (.fardata:pSockList)
                  815b5164    00000004     --HOLE--
                  815b5168    00000014     evm_pe66.oe66 (.fardata:ti_sysbios_heaps_HeapMem_Object__table__V)
                  815b517c    00000004     --HOLE--
                  815b5180    00000010     ti.drv.qmss.ae66 : qmss_drv.oe66 (.fardata:Qmss_lowEoiVector)
                  815b5190    0000000b     stk6_ppp_pppoe.ae66 : tcp6out.oe66 (.fardata:tcp_outflags)
                  815b519b    00000005     --HOLE--
                  815b51a0    0000000b                         : tcpout.oe66 (.fardata:tcp_outflags)
                  815b51ab    00000005     --HOLE--
                  815b51b0    00000008     evm_pe66.oe66 (.fardata:ti_sysbios_hal_Hwi_Object__table__V)
                  815b51b8    00000008     evm_pe66.oe66 (.fardata:ti_sysbios_hal_Timer_Object__table__V)
                  815b51c0    00000006     stk6_ppp_pppoe.ae66 : nimupppoe.oe66 (.fardata:MacBCast)
                  815b51c6    00000002     --HOLE--
                  815b51c8    00000004     evm_pe66.oe66 (.fardata:ti_sysbios_gates_GateHwi_Object__table__V)
                  815b51cc    00000004     --HOLE--
                  815b51d0    00000006     stk6_ppp_pppoe.ae66 : lliout.oe66 (.fardata:bEtherBCast)
                  815b51d6    00000002     --HOLE--
                  815b51d8    00000002     hpdspua.obj (.fardata:DHCP_OPTIONS)
                  815b51da    00000006     --HOLE--
                  815b51e0    00000002     ti.drv.qmss.ae66 : qmss_drv.oe66 (.fardata:Qmss_cdmaEoiVector)

platform_lib 
*          0    815b51e8    00001470     
                  815b51e8    00001058     ti.platform.evm6670l.ae66 : platform.obj (platform_lib:uninit) [fill = 0]
                  815b6240    00000210                               : evm66x_nand.obj (platform_lib) [fill = 0]
                  815b6450    00000108                               : platform.obj (platform_lib:init)
                  815b6558    00000100                               : evmc66x_ecc.obj (platform_lib)

.bss       0    815b6658    000000a4     UNINITIALIZED
                  815b6658    00000020     ndkloopback.obj (.bss)
                  815b6678    00000018     hal_timer_bios.ae66 : lltimer.oe66 (.bss)
                  815b6690    00000014     stk6_ppp_pppoe.ae66 : igmp.oe66 (.bss)
                  815b66a4    0000000c     ti.transport.ndk.nimu.ae66 : nimu_eth.obj (.bss)
                  815b66b0    0000000c     webserver.obj (.bss)
                  815b66bc    00000008     hpdspua.obj (.bss)
                  815b66c4    00000008     netctrl.ae66 : netctrl.oe66 (.bss)
                  815b66cc    00000008     nettool.ae66 : daemon.oe66 (.bss)
                  815b66d4    00000008     stk6_ppp_pppoe.ae66 : ip.oe66 (.bss)
                  815b66dc    00000008                         : nimupppoe.oe66 (.bss)
                  815b66e4    00000004     nettool.ae66 : ipaddr.oe66 (.bss)
                  815b66e8    00000004     stk6_ppp_pppoe.ae66 : ipv6_frag.oe66 (.bss)
                  815b66ec    00000004                         : lli6.oe66 (.bss)
                  815b66f0    00000004                         : rtable.oe66 (.bss)
                  815b66f4    00000004     ti.platform.evm6670l.ae66 : evmc66x_gpio.obj (.bss)
                  815b66f8    00000004                               : evmc66x_spi.obj (.bss)

.neardata 
*          0    815b66fc    000001d1     
                  815b66fc    00000044     nettool.ae66 : httpstr.oe66 (.neardata)
                  815b6740    00000024     os.ae66 : mem.oe66 (.neardata)
                  815b6764    00000020     webpage.obj (.neardata)
                  815b6784    00000018     netctrl.ae66 : netctrl.oe66 (.neardata)
                  815b679c    00000018     os.ae66 : task.oe66 (.neardata)
                  815b67b4    00000014     stk6_ppp_pppoe.ae66 : rtable.oe66 (.neardata)
                  815b67c8    00000010     ndkbenchmark.obj (.neardata)
                  815b67d8    00000010     nettool.ae66 : daemon.oe66 (.neardata)
                  815b67e8    00000010     stk6_ppp_pppoe.ae66 : bind6.oe66 (.neardata)
                  815b67f8    00000010                         : igmp.oe66 (.neardata)
                  815b6808    0000000c     hpdspua.obj (.neardata)
                  815b6814    0000000c     stk6_ppp_pppoe.ae66 : route6.oe66 (.neardata)
                  815b6820    00000008     os.ae66 : ossys.oe66 (.neardata)
                  815b6828    00000008     stk6_ppp_pppoe.ae66 : exec.oe66 (.neardata)
                  815b6830    00000008                         : icmp.oe66 (.neardata)
                  815b6838    00000008                         : ip.oe66 (.neardata)
                  815b6840    00000008                         : ipin.oe66 (.neardata)
                  815b6848    00000008                         : ipv6_frag.oe66 (.neardata)
                  815b6850    00000008                         : lli.oe66 (.neardata)
                  815b6858    00000008                         : nimupppoe.oe66 (.neardata)
                  815b6860    00000008                         : rtc.oe66 (.neardata)
                  815b6868    00000008                         : tcp.oe66 (.neardata)
                  815b6870    00000008                         : tcp6.oe66 (.neardata)
                  815b6878    00000008                         : timer.oe66 (.neardata)
                  815b6880    00000008     ti.platform.evm6670l.ae66 : platform.obj (.neardata)
                  815b6888    00000004     flash.obj (.neardata)
                  815b688c    00000004     hal_timer_bios.ae66 : lltimer.oe66 (.neardata)
                  815b6890    00000004     netctrl.ae66 : netsrv.oe66 (.neardata)
                  815b6894    00000004     nettool.ae66 : config.oe66 (.neardata)
                  815b6898    00000004                  : httpsend.oe66 (.neardata)
                  815b689c    00000004     os.ae66 : efs.oe66 (.neardata)
                  815b68a0    00000004     stk6_ppp_pppoe.ae66 : bind.oe66 (.neardata)
                  815b68a4    00000004                         : ipfrag.oe66 (.neardata)
                  815b68a8    00000004                         : lli6.oe66 (.neardata)
                  815b68ac    00000004                         : mld.oe66 (.neardata)
                  815b68b0    00000004                         : node.oe66 (.neardata)
                  815b68b4    00000004                         : pbm.oe66 (.neardata)
                  815b68b8    00000004                         : sock6pcb.oe66 (.neardata)
                  815b68bc    00000004                         : sockpcb.oe66 (.neardata)
                  815b68c0    00000002     nettool.ae66 : dnscomn.oe66 (.neardata)
                  815b68c2    00000002     --HOLE-- [fill = 0]
                  815b68c4    00000002     ti.transport.ndk.nimu.ae66 : nimu_eth.obj (.neardata)
                  815b68c6    00000002     --HOLE-- [fill = 0]
                  815b68c8    00000001     nettool.ae66 : dnsclnt.oe66 (.neardata)
                  815b68c9    00000003     --HOLE-- [fill = 0]
                  815b68cc    00000001     ti.drv.qmss.ae66 : qmss_drv.oe66 (.neardata)

.rodata    0    815b68d0    0000003c     
                  815b68d0    00000024     stk6_ppp_pppoe.ae66 : ipv6.oe66 (.rodata)
                  815b68f4    00000010     os.ae66 : mem_data.oe66 (.rodata)
                  815b6904    00000008     stk6_ppp_pppoe.ae66 : pbm_data.oe66 (.rodata)

.cinit     0    815b690c    00031c20     
                  815b690c    000309c4     (.cinit..far:WEBDATA.load) [load image, compression = rle]
                  815e72d0    00000e78     (.cinit..fardata.2.load) [load image, compression = rle]
                  815e8148    0000019e     (.cinit.platform_lib.load) [load image, compression = rle]
                  815e82e6    00000002     --HOLE-- [fill = 0]
                  815e82e8    000000aa     (.cinit..neardata.load) [load image, compression = rle]
                  815e8392    00000002     --HOLE-- [fill = 0]
                  815e8394    00000040     (.cinit..rodata.load) [load image, compression = rle]
                  815e83d4    00000027     (.cinit..far.load) [load image, compression = rle]
                  815e83fb    00000001     --HOLE-- [fill = 0]
                  815e83fc    00000026     (.cinit..fardata.1.load) [load image, compression = rle]
                  815e8422    00000002     --HOLE-- [fill = 0]
                  815e8424    0000000c     (__TI_handler_table)
                  815e8430    0000000b     (.cinit..nimu_eth_ll2.load) [load image, compression = rle]
                  815e843b    00000001     --HOLE-- [fill = 0]
                  815e843c    00000008     (.cinit..bss.load) [load image, compression = zero_init]
                  815e8444    00000008     (.cinit..cppi.load) [load image, compression = zero_init]
                  815e844c    00000008     (.cinit..far:NDK_OBJMEM.load) [load image, compression = zero_init]
                  815e8454    00000008     (.cinit..far:NDK_PACKETMEM.load) [load image, compression = zero_init]
                  815e845c    00000008     (.cinit..far:taskStackSection.load) [load image, compression = zero_init]
                  815e8464    00000008     (.cinit..gBuffer.load) [load image, compression = zero_init]
                  815e846c    00000008     (.cinit..qmss.load) [load image, compression = zero_init]
                  815e8474    00000008     (.cinit..resmgr_handles.load) [load image, compression = zero_init]
                  815e847c    00000008     (.cinit..resmgr_memregion.load) [load image, compression = zero_init]
                  815e8484    00000008     (.cinit..resmgr_pa.load) [load image, compression = zero_init]
                  815e848c    00000008     (.cinit.systemHeap.load) [load image, compression = zero_init]
                  815e8494    00000098     (__TI_cinit_table)


LINKER GENERATED COPY TABLES

__TI_cinit_table @ 815e8494 records: 19, size/record: 8, table size: 152
	.far:WEBDATA: load addr=815b690c, load size=000309c4 bytes, run addr=81312d00, run size=0012b320 bytes, compression=rle
	.fardata.2: load addr=815e72d0, load size=00000e78 bytes, run addr=815b3d00, run size=000014e2 bytes, compression=rle
	platform_lib: load addr=815e8148, load size=0000019e bytes, run addr=815b51e8, run size=00001470 bytes, compression=rle
	.neardata: load addr=815e82e8, load size=000000aa bytes, run addr=815b66fc, run size=000001d1 bytes, compression=rle
	.rodata: load addr=815e8394, load size=00000040 bytes, run addr=815b68d0, run size=0000003c bytes, compression=rle
	.far: load addr=815e83d4, load size=00000027 bytes, run addr=815a5600, run size=0000e6f4 bytes, compression=rle
	.fardata.1: load addr=815e83fc, load size=00000026 bytes, run addr=815a55c0, run size=00000040 bytes, compression=rle
	.nimu_eth_ll2: load addr=815e8430, load size=0000000b bytes, run addr=00829980, run size=00000318 bytes, compression=rle
	.bss: load addr=815e843c, load size=00000008 bytes, run addr=815b6658, run size=000000a4 bytes, compression=zero_init
	.cppi: load addr=815e8444, load size=00000008 bytes, run addr=00829200, run size=00000480 bytes, compression=zero_init
	.far:NDK_OBJMEM: load addr=815e844c, load size=00000008 bytes, run addr=00828890, run size=00000600 bytes, compression=zero_init
	.far:NDK_PACKETMEM: load addr=815e8454, load size=00000008 bytes, run addr=0c000000, run size=00052b00 bytes, compression=zero_init
	.far:taskStackSection: load addr=815e845c, load size=00000008 bytes, run addr=0c052b00, run size=00004800 bytes, compression=zero_init
	.gBuffer: load addr=815e8464, load size=00000008 bytes, run addr=80000000, run size=01312d00 bytes, compression=zero_init
	.qmss: load addr=815e846c, load size=00000008 bytes, run addr=00824000, run size=00002400 bytes, compression=zero_init
	.resmgr_handles: load addr=815e8474, load size=00000008 bytes, run addr=00829dc0, run size=000000a0 bytes, compression=zero_init
	.resmgr_memregion: load addr=815e847c, load size=00000008 bytes, run addr=00820000, run size=00004000 bytes, compression=zero_init
	.resmgr_pa: load addr=815e8484, load size=00000008 bytes, run addr=00826400, run size=00001488 bytes, compression=zero_init
	systemHeap: load addr=815e848c, load size=00000008 bytes, run addr=8143e080, run size=000f4240 bytes, compression=zero_init


LINKER GENERATED HANDLER TABLE

__TI_handler_table @ 815e8424 records: 3, size/record: 4, table size: 12
	index: 0, handler: __TI_zero_init
	index: 1, handler: __TI_decompress_rle24
	index: 2, handler: __TI_decompress_none


GLOBAL SYMBOLS: SORTED ALPHABETICALLY BY Name 

address    name
--------   ----
815546a0   AddWebFiles
81535578   Add_MACAddress
81418688   BANNER
8140e878   BENCHHTML
8157c5a0   Bind6DADCheck
81592000   Bind6FindByHost
8158fc00   Bind6FindByIF
81592040   Bind6FindByNet
8157c6e0   Bind6Free
815786e0   Bind6GetGlobalAddress
81593540   Bind6GetInterfaceHandle
81593560   Bind6GetLifetime
81584520   Bind6GetLinkLocalAddress
8158fc60   Bind6IF2IPHost
81575fe0   Bind6Msg
815549e0   Bind6New
81593580   Bind6SetLifetime
8143e020   BindFindByHost
8158fcc0   BindFindByIF
8158fd20   BindFindByNet
8157f280   BindFree
815935a0   BindGetFirst
815935c0   BindGetIF
8158fd80   BindGetIFByDBCast
81592080   BindGetIP
815935e0   BindGetNext
8158fde0   BindIF2IPHost
81593600   BindIFNet2IPHost
81593620   BindIPHost2IF
81565b00   BindNew
815b3a10   BlockCount
815b39f0   BlockMax
81593fe0   C$$EXIT
81591db8   C$$IO$$
81439430   C6670_SMALLGIF
814362c0   C6678_SMALLGIF
815b672c   CONTENT_LENGTH
815b6728   CONTENT_TYPE
815b66fc   CONTENT_TYPE_APPLET
815b6700   CONTENT_TYPE_AU
815b6704   CONTENT_TYPE_CSS
815b6708   CONTENT_TYPE_DOC
815b670c   CONTENT_TYPE_GIF
815b6710   CONTENT_TYPE_HTML
815b6714   CONTENT_TYPE_JPG
815b6718   CONTENT_TYPE_MPEG
815b671c   CONTENT_TYPE_PDF
815b6720   CONTENT_TYPE_WAV
815b6724   CONTENT_TYPE_ZIP
81415620   CREDITHTML
815b6730   CRLF
8157c820   CSL_chipReadReg
81594080   CSL_versionGetStr
815a4cb0   CSL_versionStr
81561920   CfgAddEntry
8158a3e0   CfgEntryDeRef
8158a480   CfgEntryGetData
8158fe40   CfgEntryInfo
81574060   CfgExecute
8157f3a0   CfgFree
8157a1e0   CfgGetEntry
81584600   CfgGetEntryCnt
8158a520   CfgGetImmediate
8157a340   CfgGetNextEntry
81582520   CfgNew
81576180   CfgRemoveEntry
81593640   CfgSetDefault
81582620   CfgSetExecuteOrder
8158fea0   CfgSetService
81541c88   CheckDHCPOptions
815a4580   Code2Err
81537fe0   Convert_CoreLocal2GlobalAddr
815458ac   CorePllcGetHwSetup
81545674   CorePllcHwSetup
81574220   Cppi_channelClose
8158a700   Cppi_channelEnable
8154cca0   Cppi_configureRxFlow
81593660   Cppi_getVersionStr
81593680   Cppi_init
815743e0   Cppi_initCfg
8155aae0   Cppi_initDescriptor
8156d240   Cppi_open
81556de0   Cppi_rxChannelOpen
8158d180   Cppi_setCpdmaLoopback
81553220   Cppi_txChannelOpen
8153c640   CreateIPUse
8153c9e0   CreateRoute
8153c988   CreatehtmlSockets
81545430   DDR3Init
8140d9a8   DEFAULTCSS
815b6734   DEFAULT_NAME
815846e0   DHCPClose
81568dc0   DHCPOpen
815b51d8   DHCP_OPTIONS
81541bc4   DHCP_reset
8158ff00   DNSBuildRequest
815b4c80   DNSErrorStrings
8158d200   DNSGetHostByAddr
81565dc0   DNSGetReply
8157f4c0   DNSReplyFree
81576320   DNSResolveQuery
81433550   DSPCHIPGIF
8157f5e0   DaemonFree
8156d6c0   DaemonNew
8157a4a0   DbgPrintf
815b6824   DebugCritError
00828890   DebugLog
815b6820   DebugLogSize
81541b08   EVM_init
81535d58   EmacRxPktISR
815920c0   ExecClose
815936a0   ExecHRef
815936c0   ExecLowResource
8157c960   ExecOpen
81592100   ExecTimer
8158a7a0   FdSignalEvent
8157f700   FdWaitEvent
815b6778   HDR
8158a840   HOSTclose
81582720   HOSTlseek
815847c0   HOSTopen
81587b60   HOSTread
815764c0   HOSTrename
81587c20   HOSTunlink
81587ce0   HOSTwrite
815b6738   HTTP_VER
815b30d0   HostName
81416070   I2CHTML
8158d300   ICMPChecksum
81569040   ICMPGenPacket
815508e0   ICMPInput
8157caa0   ICMPSendRtAdv
8156f840   ICMPv6RecvNA
81562be0   ICMPv6RecvNS
8154c620   ICMPv6RecvRA
8158d400   ICMPv6RecvRS
81561f60   ICMPv6RecvRedirect
8155e620   ICMPv6RxPacket
81562ee0   ICMPv6SendDstUnreachable
8156b5c0   ICMPv6SendNA
8156b820   ICMPv6SendNS
8155fea0   ICMPv6SendParameterProblem
815631e0   ICMPv6SendTimeExceeded
8155e9a0   IGMPInput
8157cbe0   IGMPJoin
815848a0   IGMPLeave
8157f820   IGMPLeaveHostGroup
81578860   IGMPMsg
81590020   IGMPTestGroup
8142f890   IMAGE1
8142fbc8   IMAGE2
81433388   IMAGE3
8140c668   INDEXHTML
815b68f0   INFINITE_LT
81417870   INFOHTML
81590080   IPChecksum
815745a0   IPGetRoute
8157f940   IPMsg
8154f1e0   IPReasm
8158a8e0   IPReasmFree
8158a980   IPReasmTimeout
815936e0   IPRtChange
815406e0   IPRxPacket
81543320   IPTxPacket
815b3758   IPV6_ALL_NODES_ADDRESS
815b3768   IPV6_ALL_ROUTER_ADDRESS
815b68dc   IPV6_DELAY_FIRST_PROBE_TIME
815b3748   IPV6_HOST_MASK
815b3708   IPV6_LINKLOCALMASK
815b3738   IPV6_LOOPBACK_ADDRESS
815b68d0   IPV6_MAX_MULTICAST_SOLICIT
815b68ec   IPV6_MAX_RTR_SOLICITATIONS
815b68e4   IPV6_MAX_RTR_SOLICITATION_DELAY
815b68d4   IPV6_MAX_UNICAST_SOLICIT
815b3718   IPV6_MULTICASTMASK
815b68e0   IPV6_REACHABLE_TIME
815b68d8   IPV6_RETRANS_TIME
815b68e8   IPV6_RTR_SOLICITATION_INTERVAL
815b3728   IPV6_UNSPECIFIED_ADDRESS
8158aa20   IPv6CompareAddress
8157cd20   IPv6DisplayIPAddress
81576800   IPv6FragMsg
8158d500   IPv6GetRoute
81582920   IPv6GetSubnetMaskFromBits
81551400   IPv6IPAddressToString
8157fca0   IPv6Init
81592140   IPv6IsLinkLocal
81592180   IPv6IsMulticast
81587f20   IPv6Layer4ComputeChecksum
81584a60   IPv6PTRStringToIPAddress
81566e40   IPv6ParseExtnHeaders
815711c0   IPv6ParseFragHdr
8156fc80   IPv6RxPacket
81559b60   IPv6TxFragPacket
8155aea0   IPv6TxPacket
81535344   Init_Cpsw
81535214   Init_MAC
81535210   Init_MDIO
815351c8   Init_PASS
81564240   Init_SGMII
815350ec   Init_Switch
8157fdc0   IsICMPv6ErrorPkt
81593700   LED_TOGGLE
8158d580   LLI6Free
81593720   LLI6GetNetDevice
81593740   LLI6IncRefCount
81593760   LLI6IsDead
81593780   LLI6IsRouter
815921c0   LLI6IsValid
81584b40   LLI6Msg
815713c0   LLI6New
815937a0   LLI6SetIncomplete
8156ba80   LLI6TxIPPacket
81584c20   LLI6Update
815789e0   LLIAddStaticEntry
815900e0   LLIFree
81574920   LLIGenArpPacket
81590140   LLIGetMacAddr
81587fe0   LLIGetValidTime
815880a0   LLIMsg
8157cfa0   LLINew
8158d680   LLIRemoveStaticEntry
81554e80   LLIRxPacket
81560560   LLITxIpPacket
8158aac0   LLIValidateRoute
8143c8b8   LOGOBAR
815b680c   LocalIPAddr
815b6774   MAINHDR
8158ab60   MD5Final
81592200   MD5Init
8157fee0   MD5Update
81580000   MLDJoinGroup
81588220   MLDLeaveGroup
81592240   MLDTestGroup
81592280   NC_BootComplete
815937c0   NC_IPUpdate
81576b40   NC_NetStart
815937e0   NC_NetStop
8158d700   NC_SystemClose
81580120   NC_SystemOpen
81410e80   NDKBENCHMARKJAR
81413d70   NDKLOOPSTARTHTML
8140f848   NDKPARMSHTML
815922c0   NDK_hookCreate
81593800   NDK_hookInit
81580240   NIMUAddEthernetHeader
815901a0   NIMUAddHeader
81590200   NIMUCreatePacket
815b4c78   NIMUDeviceTable
81590260   NIMUFindByIndex
815882e0   NIMUFindByName
81593820   NIMUGetRsvdSizeInfo
8158d780   NIMUInit
8155d060   NIMUIoctl
815902c0   NIMUPacketService
81590320   NIMUPacketServiceCheck
8156bce0   NIMUReceivePacket
81578b60   NIMURegister
81590380   NIMUSendPacket
81593840   NIMUSetRsvdSizeInfo
8158ac00   NIMUShutdown
8158aca0   NIMUUnregister
815883a0   NS_BootTask
815903e0   NS_PreBoot
815472a8   NandGetDetails
81546f10   NandReadPage
81546c90   NandReadSpareArea
81546d40   NandWriteDataBytes
81546d88   NandWritePage
815471e4   NandWriteSpareArea
81593860   NatMsg
815670e0   NodeAdd
81584fa0   NodeDeRef
8157d0e0   NodeFind
81593880   NodeGetRt
815938a0   NodeSetRt
81576ce0   NodeTreeFree
81585160   NodeTreeNew
8157d220   NodeWalk
815938c0   NotifyLowResource
8158ad40   NtAddNetwork
81590440   NtIPN2Str
81588520   NtIfIdx2Ip
81592300   NtRemoveNetwork
815938e0   OEMCacheClean
81593900   OEMSysCritOff
81593920   OEMSysCritOn
8156ed14   Osal_cppiBeginMemAccess
8156ece0   Osal_cppiCsEnter
8156eccc   Osal_cppiCsExit
8156ecc8   Osal_cppiEndMemAccess
8156ecac   Osal_cppiFree
8156ec84   Osal_cppiMalloc
8156ec68   Osal_nimuFree
8156ec40   Osal_nimuMalloc
8156ec38   Osal_paBeginMemAccess
8156ec34   Osal_paEndMemAccess
8156ec30   Osal_paMtCsEnter
8156ec2c   Osal_paMtCsExit
8156ec10   Osal_platformFree
8156ebe8   Osal_platformMalloc
8156ebb0   Osal_platformSpiCsEnter
8156eba0   Osal_platformSpiCsExit
8156eb98   Osal_qmssBeginMemAccess
8156eb64   Osal_qmssCsEnter
8156eb50   Osal_qmssCsExit
8156eb4c   Osal_qmssEndMemAccess
8156eb30   Osal_qmssFree
8156eb08   Osal_qmssMalloc
8156eb04   Osal_qmssMtCsEnter
8156eb00   Osal_qmssMtCsExit
815b6770   PAGEFOOTER
815b6764   PAGEHEAD
815b6768   PAGEWRAPPER
815b676c   PAGEWRAPPERBACK
8158d800   PBMQ_deq
81585240   PBMQ_enq
815b3c94   PBMQ_free
8157d360   PBM_alloc
81593940   PBM_close
81585320   PBM_copy
8157a8c0   PBM_free
8158ade0   PBM_open
815b6740   PITCount
815b6748   PITHigh
815b6744   PITUsed
8140c260   POST_files
81406f40   POST_names
81407260   POST_values
8154b160   Pa_addMac
81560c20   Pa_create
81576e80   Pa_downloadImage
815649c0   Pa_forwardResult
8158d900   Pa_getBufferReq
81593960   Pa_getVersionStr
8156d900   Pa_resetControl
815b3a50   PageCount
815b3a30   PageMax
8158ae80   PipeCheck
8158d980   PipeClose
8156db40   PipeRecv
8157ab80   PipeSend
81545338   PowerUpDomains
815431ac   QMSS_QPOP
81543064   QMSS_QPUSH
81542f10   QMSS_QPUSHDESCSIZE
81592340   Qmss_ackInterrupt
815b51e0   Qmss_cdmaEoiVector
81580360   Qmss_disableAccumulator
81592380   Qmss_getMemRegDescSize
8158da00   Qmss_getMemRegQueueHandle
81593980   Qmss_getQueueNumber
815939a0   Qmss_getVersionStr
815b50a0   Qmss_highEoiVector
81560f60   Qmss_init
815473a0   Qmss_insertMemoryRegion
815b5180   Qmss_lowEoiVector
815717c0   Qmss_programAccumulator
8158af20   Qmss_queueClose
8158da80   Qmss_queueOpen
815885e0   Qmss_setEoiVector
815939c0   Qmss_start
8158afc0   Qmss_startCfg
815b677c   ROW_END
815b6780   ROW_START
81590500   RTCAddHook
81582b20   RTCMsg
81590560   RTCRemoveHook
815719c0   RTCReport
81577020   Raw6Input
81571bc0   Raw6Output
81580480   RawEthRxPacket
81582c20   RawEthSockCheck
8158db00   RawEthSockClose
8156fea0   RawEthSockNew
81585400   RawEthSockNotify
815854e0   RawEthSockPcbAttach
815905c0   RawEthSockPcbCleanup
8158db80   RawEthSockPcbDetach
81590620   RawEthSockPcbFind
815923c0   RawEthSockPcbInit
815939e0   RawEthSockPrAttach
81593a00   RawEthSockPrDetach
815805a0   RawEthSockRecvNC
815855c0   RawEthSockSend
8156bf40   RawEthSockSet
815806c0   RawEthTxPacket
8156dd80   RawInput
8157ace0   RawOutput
81554520   RemoveWebFiles
815b5100   ReportStr
815856a0   Route6Msg
8158b060   RouteMsg
8154dfc0   Rt6Create
81564ca0   Rt6Find
815886a0   Rt6FindDefaultRouter
81567380   Rt6Free
81593a20   Rt6GetIF
81593a40   Rt6GetLLI
81593a60   Rt6GetMTU
81590680   Rt6GetNetworkAddr
81593a80   Rt6IncRefCount
81592440   Rt6IsDefaultRoute
81593aa0   Rt6IsLocalRoute
81572f80   Rt6Modify
8158dc00   Rt6Update
8155d400   RtCreate
81585780   RtDeRef
81567620   RtFind
81582d20   RtRedirect
81585860   RtRemove
8158dc80   RtSetFailure
8158dd00   RtSetTimeout
81588760   RtWalkBegin
815906e0   RtWalkEnd
8157afa0   RtWalkNext
81588820   SB6Flush
8158b1a0   SB6Free
8157d5e0   SB6New
81566340   SB6Read
815888e0   SB6SetMax
8156c1a0   SB6Write
815889a0   SBFlush
8158b240   SBFree
815807e0   SBNew
8155d7a0   SBRead
81585940   SBReadNC
81585a20   SBSetMax
8156c400   SBWrite
815b673c   SPACE
8158b2e0   SemCreate
81593ac0   SemDelete
81593ae0   SemPend
81593b00   SemPost
81593b20   SemReset
815b4b10   ServiceStatus
8154524c   SetDDR3PllConfig
81545144   SetPaPllConfig
81534cec   Setup_Rx
81534a4c   Setup_Tx
8157d860   Sock6Accept
8158dd80   Sock6Bind
8157b260   Sock6Check
8158b380   Sock6CleanPcb
8156c660   Sock6Close
815536e0   Sock6Connect
8157b3c0   Sock6CreatePacket
81580b40   Sock6Disconnect
8158b420   Sock6GetName
81588a60   Sock6IntAbort
8157d9a0   Sock6Listen
81557220   Sock6New
8155ed20   Sock6Notify
81592480   Sock6PcbAttach
815637e0   Sock6PcbBind
8158de00   Sock6PcbCleanup
8157b520   Sock6PcbConnect
815907a0   Sock6PcbDetach
81566600   Sock6PcbResolve
81588b20   Sock6PcbResolveChain
81588be0   Sock6PcbRtChange
81593b40   Sock6PrAttach
81590800   Sock6PrCtlError
81590860   Sock6PrDetach
81555320   Sock6Recv
81558b60   Sock6Send
81553ba0   Sock6Set
81593b60   Sock6SetOOBData
815924c0   Sock6SetOOBMark
81580c60   Sock6Shutdown
81585b00   Sock6SpawnAbort
81585be0   Sock6ValidateRoute
8157dae0   SockAccept
8158b4c0   SockBind
8157b680   SockCheck
8158b560   SockCleanPcb
81567b60   SockClose
8155f0a0   SockConnect
81577360   SockCreatePacket
81585cc0   SockDisconnect
8158de80   SockGetName
8157b7e0   SockGetPcb
81588ca0   SockIntAbort
8157dc20   SockListen
81551960   SockNew
8155f420   SockNotify
81592500   SockPcbAttach
8156c8c0   SockPcbBind
8158df00   SockPcbCleanup
8157b940   SockPcbConnect
8157dd60   SockPcbCtlError
8158df80   SockPcbDetach
815697c0   SockPcbResolve
8158b600   SockPcbResolveChain
81588d60   SockPcbRtChange
81593b80   SockPrAttach
815908c0   SockPrCtlError
81590920   SockPrDetach
815557c0   SockRecv
81569a40   SockRecvNC
8155b620   SockSend
815492e0   SockSet
81593ba0   SockSetOOBData
81592540   SockSetOOBMark
81580ea0   SockShutdown
81585da0   SockSpawnAbort
81582e20   SockValidateRoute
815b5118   StatusStr
81534a04   Switch_update_addr
81588e20   TCP6Close
8158b6a0   TCP6Drop
81569cc0   TCP6GenPacket
81539a60   TCP6Input
8153d880   TCP6Output
81580fc0   TCP6PrAttach
81590980   TCP6PrConnect
8158b740   TCP6PrCtlError
81585e80   TCP6PrDetach
81585f60   TCP6PrDisconnect
81583020   TCP6PrInherit
8158e000   TCP6PrListen
81593bc0   TCP6PrRecv
8158b7e0   TCP6PrSend
8158b880   TCP6PrSendOOB
81567e00   TCP6PrSetOption
815909e0   TCP6SetPersist
81593be0   TCP6TimeoutAdd
8155b9e0   TCP6TimeoutCheck
8157bc00   TCP6TimeoutKeep
81590a40   TCP6TimeoutPersist
81592580   TCP6TimeoutRemove
815776a0   TCP6TimeoutRexmt
81588ee0   TCP6TimeoutSackRexmt
815925c0   TCP6TimeoutWait2
81586040   TCP6ValidateMetrics
81583120   TCP6XmitTimer
815b47b0   TSK_idle
81593c00   TaskBlock
8158b920   TaskCreate
81592600   TaskDestroy
8156ae40   TaskExit
81588fa0   TaskGetEnv
81593c20   TaskSelf
8158e080   TaskSetEnv
81593c40   TaskSetPri
81568b20   TaskSleep
81589060   TcpChecksum
81589120   TcpClose
8158b9c0   TcpDrop
81573340   TcpGenPacket
81538060   TcpInput
8153b400   TcpOutput
815810e0   TcpPrAttach
81590aa0   TcpPrConnect
8158ba60   TcpPrCtlError
81586120   TcpPrDetach
81586200   TcpPrDisconnect
81593c60   TcpPrGetState
81583220   TcpPrInherit
8158e100   TcpPrListen
81593c80   TcpPrRecv
8158bb00   TcpPrSend
8158bba0   TcpPrSendOOB
815680a0   TcpPrSetOption
81590b00   TcpSetPersist
81593ca0   TcpTimeoutAdd
8155bda0   TcpTimeoutCheck
8157bd60   TcpTimeoutKeep
81590b60   TcpTimeoutPersist
81592640   TcpTimeoutRemove
81574e60   TcpTimeoutRexmt
815891e0   TcpTimeoutSackRexmt
81592680   TcpTimeoutWait2
815862e0   TcpValidateMetrics
81583320   TcpXmitTimer
8157f5e0   TelnetClose
81581200   TelnetOpen
81593cc0   TimerFree
8158e180   TimerHSTick
8158bc40   TimerNew
81575b64   UartInit
81575b48   UartIsDataReady
81575b14   UartReadBaudRate
81575b08   UartReadData
81575ae0   UartSetBaudRate
81575aa0   UartWriteData
81563ae0   Udp6Input
815668c0   Udp6Output
815864a0   UdpChecksum
81552380   UdpInput
81565260   UdpOutput
81586580   VLANDeinit
81590c80   VLANInit
81586660   VLANReceivePacket
815b6808   VerStr
81534858   Verify_Init
81435888   WAITINGGIF
815b3950   _ICMPIn
815b6830   _ICMPInErrors
815b39a0   _ICMPOut
815b6834   _ICMPOutErrors
815b6800   _IGMPForceVersion1
815b6690   _IGMPInDiscard
815b6694   _IGMPInQuery
815b6698   _IGMPInQueryGroup
815b669c   _IGMPInResponse
815b66a0   _IGMPOutResponse
815b6838   _IPExecuting
815b68a4   _IPReasmPtr
81586820   _LLIExpListInsert
8158e300   _LLIExpListRemove
81575020   _LLITimeoutCheck
8158bd80   _LLITimeoutFlush
81586900   _RtExpListInsert
8158e400   _RtExpListRemove
81581320   _RtNodeInsert
81583420   _RtNodeRemove
81593ce0   _TaskInit
81593d00   _TaskShutdown
80000000   __ASM__
00829c98   __CIOBUF_
80000070   __ISA__
80000088   __PLAT__
800000b0   __TARG__
815e8494   __TI_CINIT_Base
815e852c   __TI_CINIT_Limit
815e8424   __TI_Handler_Table_Base
815e8430   __TI_Handler_Table_Limit
UNDEFED    __TI_INITARRAY_Base
UNDEFED    __TI_INITARRAY_Limit
00828888   __TI_STACK_END
00001000   __TI_STACK_SIZE
815b6658   __TI_STATIC_BASE
00000001   __TI_args_main
815940a0   __TI_decompress_none
815940c0   __TI_decompress_rle24
815b4fbc   __TI_enable_exit_profile_output
ffffffff   __TI_pprof_out_hndl
ffffffff   __TI_prof_data_size
ffffffff   __TI_prof_data_start
81586d60   __TI_zero_init
800000d8   __TRDR__
ffffffff   __binit__
81592740   __c6xabi_call_stub
8154f7a0   __c6xabi_divd
815869e0   __c6xabi_divi
815895a0   __c6xabi_divu
81577840   __c6xabi_divul
8156dfc0   __c6xabi_divull
81593d20   __c6xabi_errno_addr
8158e480   __c6xabi_fixdu
81590d40   __c6xabi_frcmpyd_div
815926c0   __c6xabi_isinf
8158e500   __c6xabi_llshl
81590da0   __c6xabi_llshru
81593d40   __c6xabi_negll
81593da0   __c6xabi_pop_rts
81593dc0   __c6xabi_push_rts
81589660   __c6xabi_remi
8158be20   __c6xabi_remu
81592780   __c6xabi_strasgi_64plus
ffffffff   __c_args__
81592740   __call_stub
81593d60   __cxa_atexit
815894e0   __cxa_finalize
81593d80   __cxa_ia64_exit
815869e0   __divi
815895a0   __divu
815b4ff4   __errno
81593da0   __pop_rts
81593dc0   __push_rts
81589660   __remi
8158be20   __remu
81592780   __strasgi_64plus
81593de0   __xdc__init
815b42dc   __xdc__init__addr
815927c0   _args_main
00000000   _argsize
8157dea0   _auto_init_elf
8158bec0   _c_int00
8158bf60   _cleanup
815b4fb4   _cleanup_ptr
81581440   _closefile
815a35a8   _ctypes_
81589720   _doflush
815b4fb8   _dtors_ptr
815b496c   _ft_end
815b42e0   _ftable
815b48b8   _ipcfg
81593e00   _llSerialInit
81593e20   _llSerialServiceCheck
81593e40   _llSerialShutdown
81592800   _llTimerInit
81593e60   _llTimerShutdown
81593e80   _llUserLedInit
81593ea0   _llUserLedShutdown
815b5144   _lock
8155db40   _mmCheck
81581680   _mmInit
81593ec0   _nop
815b5054   _oscfg
81555c60   _printfi
81593f60   _register_lock
81593f80   _register_unlock
00827888   _stack
81590e00   _subcull
815b32b8   _tmpnams
815b5148   _unlock
81583520   _wrt_ok
81593fe0   abort
815a0cf8   acc48_le
815721c0   accept
81594000   atexit
81586ba0   atoi
8157bec0   authInit
8158c1e0   authStart
815792e0   bind
ffffffff   binit
81594aa0   c1
81599328   c2
815779e0   cgiParseVars
81557660   chapInput
81586c80   close
815640e0   configSerdes
81579460   connect
815b3bf8   coreKey
815b44c0   cppiGblCfgParams
815b5114   cppiLObj
815a4a80   cppiLldVersionStr
00829200   cppiObject
815725c0   cppi_internal_heap_add
8158e600   cppi_internal_heap_cache_begin
81594020   cppi_internal_heap_free
8158c280   cppi_internal_heap_malloc
81590e60   cppi_list_add
81590ec0   cppi_list_cache_invalidate
8158c320   cppi_list_cat
81594040   cppi_list_get_head
81594060   cppi_list_get_next
8158e680   cppi_list_remove
815897e0   cppi_list_remove_node
8158c3c0   dhcpBuildDecline
81590f20   dhcpBuildDiscover
81577b80   dhcpBuildOptions
815795e0   dhcpBuildRequest
8157e260   dhcpDecodeType
815898a0   dhcpOptionsClear
8155f7a0   dhcpPacketProcess
81590f80   dhcpPacketReceive
81590fe0   dhcpPacketSend
8158e700   dhcpSocketClose
81573700   dhcpSocketOpen
8156e8c0   dhcpState
81570500   dhcpVerifyMessage
815b31f8   dhcpservice
81560b40   eccComputeECC
815608c0   eccCorrectData
815940e0   efs_createfile
815818c0   efs_createfilecb
8158e780   efs_destroyfile
8158e800   efs_fclose
81558f60   efs_filecheck
8158c500   efs_filesend
81589960   efs_fopen
81594100   efs_getfilesize
81592940   efs_loadfunction
815347f8   emac_display_linkstatus
815b6550   emac_port_mode
815b4ff4   errno
815b66ac   ethSemHandle
8158ed80   evmI2CInit
81589a20   exit
81575560   fdClose
8158c5a0   fdCloseSession
81592980   fdError
815819e0   fdOpenSession
81549aa0   fdPoll
81557aa0   fdSelect
81591040   fdSelectAbort
815910a0   fdint_clearevent
815929c0   fdint_freefdt
81591100   fdint_getfdt
81586f20   fdint_lockfd
81591160   fdint_setevent
81594120   fdint_signaltimeout
81583620   fdint_unlockfd
8158e900   fdint_waitevent
815911c0   fdsetTestEntry
81587000   fflush
8155fdf4   fpgaControlUserLEDs
8155fdc8   fpgaDisableEepromWriteProtect
8155fd98   fpgaDisableNandWriteProtect
8155fd6c   fpgaDisableNorWriteProtect
8155fd40   fpgaEnableEepromWriteProtect
8155fd10   fpgaEnableNandWriteProtect
8155fce4   fpgaEnableNorWriteProtect
8155fcc0   fpgaGetAMCDetect
8155fc90   fpgaGetUserSwitch
8155fb20   fpgaReadConfigurationRegister
8155fc18   fpgaWriteConfigurationRegister
81570720   fputc
8155dee0   fputs
81592a00   free
81581b00   fseek
00829c80   gAccChannelNum
815b3c40   gCppiCfg
815b64dc   gDeviceEeprom0
815b6514   gDeviceEeprom1
815b646c   gDeviceNand
815b5240   gDeviceNandBBlist
815b64a4   gDeviceNor
8143df00   gEmacStats
815b6848   gFragQList
00829dc0   gGlobalFreeQHnd
00829b80   gHiPriAccumList
00820000   gHostDesc
815b3b38   gI2cBlock
815b68ac   gMLDNodeList
00826500   gMemL2Ram
008268e8   gMemL3Ram
00826400   gPAInst
00829e54   gPAInstHnd
008299b4   gPaCfgCmdRespQHnd
008299c0   gPaL2Handles
008299e8   gPaL3Handles
00829a38   gPaL4Handles
00829980   gPaTxQHnd
00829e50   gPassCpdmaHnd
00829df0   gPassCpdmaRxChanHnd
00829dc8   gPassCpdmaTxChanHnd
815b3220   gPlatformInfo
00829e58   gQPopErrorCounter
00829e5c   gQPushErrorCounter
80000000   gRxBuffer
00829c8c   gRxCounter
00829c94   gRxDropCounter
008299b8   gRxFlowHnd
008299ac   gRxFreeQHnd
008299b0   gRxQHnd
815b66a8   gTxCmdFreeQHnd
815b66a4   gTxCmdReturnQHnd
00829c88   gTxCounter
00829c90   gTxDropCounter
008299a8   gTxFreeQHnd
00829c84   gTxPort
008299a4   gTxReturnQHnd
8155fbd8   getBoardVersion
8155fb98   getFpgaDevID
81577d20   getpeername
81577ec0   getsockname
8156abac   gpioClearDataBus
8156ab88   gpioClearFallingEdgeInterrupt
8156ab64   gpioClearOutput
8156ab44   gpioClearRisingEdgeInterrupt
8156ab30   gpioDisableGlobalInterrupt
8156ab20   gpioEnableGlobalInterrupt
8156aac8   gpioInit
8156aab0   gpioReadDataBus
8156aa7c   gpioReadInput
8156aa70   gpioSetDataBus
8156aa44   gpioSetDataBusDirection
8156a9d8   gpioSetDirection
8156a9ac   gpioSetFallingEdgeInterrupt
8156a988   gpioSetOutput
8156a958   gpioSetRisingEdgeInterrupt
8156a940   gpioWriteDataBus
815b66bc   hCfg
81541284   hpdspuaStart
8153fa80   html
81540644   html_end
81540638   html_getNumberPostVars
815405b8   html_getValueFor
815405ac   html_getpage
815405a0   html_getsize
815404f4   html_processFileUpload
8153fb80   html_processPost
8153fb48   html_start
8153fb0c   html_var
81312d00   htmlbuf
815b31d0   http
8157e4e0   httpAuthenticationReq
815462c0   httpClientProcess
8157f5e0   httpClose
815b6898   httpErrorResponseHook
81581c20   httpOpen
8156cb20   httpParseRecv
81591220   httpSendClientStr
8158e980   httpSendEntityLength
8158ea00   httpSendErrorResponse
81589ae0   httpSendFullResponse
81581d40   httpSendStatusLine
8154a844   i2cEepromMacRead
8154a710   i2cEepromMacWrite
8154a5f0   i2cEepromRead
8154a530   i2cEepromWrite
8154a260   i2cEepromWriteBlock
8154a42c   i2cEepromWriteByteAddr
815b3c7c   icmp6stats
81592a40   inet_addr
81563de0   inet_aton
81591280   ipcpInit
81547b80   ipcpInput
815912e0   ipcpStart
815b3a6c   ips
815b3778   ipv6mcb
81591340   lcpClose
8158c6e0   lcpInit
81543ce0   lcpInput
81581e60   lcpOpen
81581f80   lcpReject
81592a80   list_add
815913a0   list_cat
81594140   list_get_head
81594160   list_get_next
81592ac0   list_remove
81591400   list_remove_node
81583820   listen
81579760   llEnter
815871c0   llExit
81594180   llSerialService
815941a0   llTimerGetStartTime
8158ea80   llTimerGetTime
8158c820   llTimerTick
8158c8c0   lseek
815872a0   ltoa
81596868   m
81541260   main
8158eb00   malloc
81591460   memccpy
8158c960   memcpy
81587380   memset
815612a0   mmAlloc
81587460   mmBulkAlloc
8158ca00   mmBulkFree
8157e620   mmCopy
81583920   mmFree
81589ba0   mmZeroInit
8154716c   nandFlashBlockErase
81547158   nandInit
81546b60   ndelay
8153ebcc   ndkLoopbackStart
8153ea00   ndkLoopbackStop
81532530   ndkThroughputBench
815b3be8   nimuGlobalConfigParams
815347ec   nimu_getrxdrops
815347e0   nimu_gettxdrops
815b3ad4   nimu_mcb
8155c800   nor_erase
8155c794   nor_get_details
8155c72c   nor_init
8155c6b8   nor_read
8155c5a4   nor_write
815b512c   paLObj
815a4b88   paLldVersionStr
815a5228   paMemAligns
8155e280   papInput
815a4308   pap_pdsp_const_reg_map
815b66c0   pform_status
81537930   platform_blocknpage_to_offset
815367b4   platform_delay
81537fb4   platform_delaycycles
81537320   platform_device_close
81537f20   platform_device_erase_block
81537e2c   platform_device_mark_block_bad
815370f8   platform_device_open
81537204   platform_device_read
81537db8   platform_device_read_spare_data
815379c8   platform_device_write
815378c0   platform_device_write_spare_data
815b6880   platform_errno
81537750   platform_external_memory_test
815369ac   platform_get_coreid
815376f8   platform_get_emac_info
81537420   platform_get_info
815370a0   platform_get_macaddr
81536870   platform_get_phy_addr
8155fc90   platform_get_switch_state
81536db0   platform_init
815b6884   platform_init_return_code
815369b8   platform_internal_memory_test
81536984   platform_led
815368c4   platform_offset_to_blocknpage
81536874   platform_phy_link_status
81536854   platform_uart_init
815367f4   platform_uart_read
81536778   platform_uart_set_baudrate
81536668   platform_uart_write
81536678   platform_write
81536650   platform_write_configure
81550e80   pppEvent
81587540   pppFree
81566b80   pppInput
81556520   pppNew
815915e0   pppoeInput
815615e0   pppoeSI
81587620   printf
81559f40   processDiagnosticRequest
81545038   prog_pll1_values
815b50c0   pstrMsgName
815b6870   pt6TimeFirst
815b686c   ptTimeFirst
81594220   putc
81594240   putchar
00826000   qmssGObj
815b4600   qmssGblCfgParams
815b33f8   qmssLObj
815b68cc   qmssLObjIsValid
815a4ab8   qmssLldVersionStr
00824000   queueFree
815b3cd4   raw6_stats
815b266c   raweth_pcb
815b3ce4   raweths
815b3cc4   raws
81546fb8   readNandPage
8158ec00   readmsg
8157e760   recv
815738e0   recvnc
81591640   recvncfree
815758e0   recvncfrom
8158f800   remove
81542f04   res_mgr_cppi_get_passhandle
81542ef4   res_mgr_get_painstance
81542d54   res_mgr_init_cppi
81542b88   res_mgr_init_pass
81542920   res_mgr_init_qmss
8154290c   res_mgr_qmss_get_freeq
81542898   res_mgr_stop_cppi
81542880   res_mgr_stop_qmss
8157e8a0   send
815322c0   sendclient
81573ac0   sendto
81536620   serial_num_isvalid
8155a320   serveDiagnosticPage
81559360   serveEepromReadPage
81575720   serveFlashErasePage
8154b880   serveFlashPage
81554060   serveFlashReadPage
8155a700   serveFlashWritePage
8153d0b8   serveInformationPage
81552d40   serveStatisticsPage
815686e4   serveTaskPage
8157c2e0   setsockopt
815729c0   setvbuf
815821c0   socket
81556c78   spi_claim
81556c30   spi_cmd
81556bf8   spi_cmd_read
81556bc4   spi_cmd_write
81556b50   spi_read_word
81556b34   spi_release
81556ad4   spi_write_word
81556980   spi_xfer
815916a0   sprintf
815b3cb4   stkEvent
81591760   strcspn
8158cc80   stricmp
8158cd20   strspn
8158cdc0   strstr
81589d20   strtok
8155c160   strtol
815b6874   tcp6_iss
815b3894   tcp6_stats
815b6868   tcp_iss
815b37d0   tcps
8157c440   telnetClientProcess
815b3c60   ti_ndk_config_Global_Id2Size
815b6900   ti_ndk_config_Global_largest
815b6904   ti_ndk_config_Global_numFrameBuf
0c000000   ti_ndk_config_Global_pBufMem
0c04e000   ti_ndk_config_Global_pHdrMem
815a5600   ti_ndk_config_Global_pit
815a57c0   ti_ndk_config_Global_pitBuffer
815b68f8   ti_ndk_config_Global_rawPageCount
815b68f4   ti_ndk_config_Global_rawPageSize
815b6908   ti_ndk_config_Global_sizeFrameBuf
815b68fc   ti_ndk_config_Global_smallest
81589de0   ti_ndk_config_Global_stackThread
815a520c   ti_sysbios_BIOS_Module__diagsEnabled__C
815a5224   ti_sysbios_BIOS_Module__diagsIncluded__C
815a52f8   ti_sysbios_BIOS_Module__diagsMask__C
815a5544   ti_sysbios_BIOS_Module__id__C
815b3d00   ti_sysbios_BIOS_Module__state__V
81594260   ti_sysbios_BIOS_RtsGateProxy_enter__E
81594280   ti_sysbios_BIOS_RtsGateProxy_leave__E
81594480   ti_sysbios_BIOS_RtsGateProxy_query__E
81589ea0   ti_sysbios_BIOS_errorRaiseHook__I
8158ee00   ti_sysbios_BIOS_exitFunc__I
815a52fc   ti_sysbios_BIOS_installedErrorHook__C
815917c0   ti_sysbios_BIOS_registerRTSLock__I
815942a0   ti_sysbios_BIOS_setThreadType__E
81592b80   ti_sysbios_BIOS_startFunc__I
81592bc0   ti_sysbios_BIOS_start__E
815942c0   ti_sysbios_family_c62_TaskSupport_Module__startupDone__S
815928c0   ti_sysbios_family_c62_TaskSupport_buildTaskStack
815942e0   ti_sysbios_family_c62_TaskSupport_checkStack__E
81594300   ti_sysbios_family_c62_TaskSupport_getStackAlignment__E
81593fa0   ti_sysbios_family_c62_TaskSupport_glue
815a5300   ti_sysbios_family_c62_TaskSupport_stackAlignment__C
81591820   ti_sysbios_family_c62_TaskSupport_stackUsed__E
8158ee80   ti_sysbios_family_c62_TaskSupport_start__E
8158e580   ti_sysbios_family_c62_TaskSupport_swap__E
815a5238   ti_sysbios_family_c64p_EventCombiner_EVTMASK__C
815a5304   ti_sysbios_family_c64p_EventCombiner_E_unpluggedEvent__C
815a5548   ti_sysbios_family_c64p_EventCombiner_Module__id__C
815b3d1c   ti_sysbios_family_c64p_EventCombiner_Module__state__V
81591880   ti_sysbios_family_c64p_EventCombiner_Module_startup__E
81591880   ti_sysbios_family_c64p_EventCombiner_Module_startup__F
81592c00   ti_sysbios_family_c64p_EventCombiner_disableEvent__E
81592c00   ti_sysbios_family_c64p_EventCombiner_disableEvent__F
815918e0   ti_sysbios_family_c64p_EventCombiner_dispatchPlug__E
815918e0   ti_sysbios_family_c64p_EventCombiner_dispatchPlug__F
81583b20   ti_sysbios_family_c64p_EventCombiner_dispatch__E
81583b20   ti_sysbios_family_c64p_EventCombiner_dispatch__F
81592c40   ti_sysbios_family_c64p_EventCombiner_enableEvent__E
81592c40   ti_sysbios_family_c64p_EventCombiner_enableEvent__F
81591940   ti_sysbios_family_c64p_EventCombiner_unused__E
81591940   ti_sysbios_family_c64p_EventCombiner_unused__F
815a5308   ti_sysbios_family_c64p_Exception_E_exceptionMin__C
815a554c   ti_sysbios_family_c64p_Exception_Module__id__C
815b411c   ti_sysbios_family_c64p_Exception_Module__state__V
8158ef00   ti_sysbios_family_c64p_Exception_Module_startup__E
8158ef00   ti_sysbios_family_c64p_Exception_Module_startup__F
81579a60   ti_sysbios_family_c64p_Exception_dispatch__E
815a530c   ti_sysbios_family_c64p_Exception_exceptionHook__C
815a5310   ti_sysbios_family_c64p_Exception_externalHook__C
8154a9e0   ti_sysbios_family_c64p_Exception_handler__I
8156ed40   ti_sysbios_family_c64p_Exception_internalHandler__I
815a5314   ti_sysbios_family_c64p_Exception_internalHook__C
815a5318   ti_sysbios_family_c64p_Exception_nmiHook__C
00829000   ti_sysbios_family_c64p_Hwi0
00829020   ti_sysbios_family_c64p_Hwi1
00829140   ti_sysbios_family_c64p_Hwi10
00829160   ti_sysbios_family_c64p_Hwi11
00829180   ti_sysbios_family_c64p_Hwi12
008291a0   ti_sysbios_family_c64p_Hwi13
008291c0   ti_sysbios_family_c64p_Hwi14
008291e0   ti_sysbios_family_c64p_Hwi15
00829040   ti_sysbios_family_c64p_Hwi2
00829060   ti_sysbios_family_c64p_Hwi3
00829080   ti_sysbios_family_c64p_Hwi4
008290a0   ti_sysbios_family_c64p_Hwi5
008290c0   ti_sysbios_family_c64p_Hwi6
008290e0   ti_sysbios_family_c64p_Hwi7
00829100   ti_sysbios_family_c64p_Hwi8
00829120   ti_sysbios_family_c64p_Hwi9
815a531c   ti_sysbios_family_c64p_Hwi_LD_end__C
815a5320   ti_sysbios_family_c64p_Hwi_LM_begin__C
815a5324   ti_sysbios_family_c64p_Hwi_Module__diagsEnabled__C
815a5328   ti_sysbios_family_c64p_Hwi_Module__diagsIncluded__C
815a532c   ti_sysbios_family_c64p_Hwi_Module__diagsMask__C
815a5550   ti_sysbios_family_c64p_Hwi_Module__id__C
815a5554   ti_sysbios_family_c64p_Hwi_Module__loggerDefined__C
815a5330   ti_sysbios_family_c64p_Hwi_Module__loggerFxn1__C
815a5334   ti_sysbios_family_c64p_Hwi_Module__loggerFxn8__C
815a5338   ti_sysbios_family_c64p_Hwi_Module__loggerObj__C
815b4148   ti_sysbios_family_c64p_Hwi_Module__root__V
81592c80   ti_sysbios_family_c64p_Hwi_Module__startupDone__F
81592c80   ti_sysbios_family_c64p_Hwi_Module__startupDone__S
815b4150   ti_sysbios_family_c64p_Hwi_Module__state__V
8157e9e0   ti_sysbios_family_c64p_Hwi_Module_startup__E
8157e9e0   ti_sysbios_family_c64p_Hwi_Module_startup__F
815b4c00   ti_sysbios_family_c64p_Hwi_Object__table__V
81594320   ti_sysbios_family_c64p_Hwi_clearInterrupt__E
81592cc0   ti_sysbios_family_c64p_Hwi_disableInterrupt__E
81571fc0   ti_sysbios_family_c64p_Hwi_dispatchAlways
815643e0   ti_sysbios_family_c64p_Hwi_dispatchC__I
81592d00   ti_sysbios_family_c64p_Hwi_enableInterrupt__E
8158ef80   ti_sysbios_family_c64p_Hwi_eventMap__E
815919a0   ti_sysbios_family_c64p_Hwi_restoreInterrupt__E
81594340   ti_sysbios_family_c64p_Hwi_startup__E
81594360   ti_sysbios_family_c64p_Hwi_switchFromBootStack__E
81594380   ti_sysbios_family_c64p_TimestampProvider_Module_startup__E
81594380   ti_sysbios_family_c64p_TimestampProvider_Module_startup__F
815943a0   ti_sysbios_family_c64p_TimestampProvider_get64__E
815943c0   ti_sysbios_family_c64p_tci6488_TimerSupport_enable__E
8157eb20   ti_sysbios_family_c66_Cache_Module_startup__E
8157eb20   ti_sysbios_family_c66_Cache_Module_startup__F
815a533c   ti_sysbios_family_c66_Cache_atomicBlockSize__C
815a5270   ti_sysbios_family_c66_Cache_initSize__C
815a1fb8   ti_sysbios_family_c66_Cache_marvalues__C
815943e0   ti_sysbios_family_c66_Cache_wbInv__E
81592900   ti_sysbios_family_xxx_Hwi_switchToIsrStack
81593fc0   ti_sysbios_family_xxx_Hwi_switchToTaskStack
81592d40   ti_sysbios_gates_GateHwi_Handle__label__S
81594400   ti_sysbios_gates_GateHwi_Instance_init__F
815a4e54   ti_sysbios_gates_GateHwi_Module__FXNS__C
815b41b8   ti_sysbios_gates_GateHwi_Module__root__V
815a4f28   ti_sysbios_gates_GateHwi_Object__DESC__C
815a5148   ti_sysbios_gates_GateHwi_Object__PARAMS__C
8158f000   ti_sysbios_gates_GateHwi_Object__create__S
81592d80   ti_sysbios_gates_GateHwi_Object__delete__S
815b51c8   ti_sysbios_gates_GateHwi_Object__table__V
81594420   ti_sysbios_gates_GateHwi_enter__E
81594440   ti_sysbios_gates_GateHwi_leave__E
81594460   ti_sysbios_gates_GateHwi_query__E
81594460   ti_sysbios_gates_GateHwi_query__F
815a5340   ti_sysbios_gates_GateMutex_A_badContext__C
81592dc0   ti_sysbios_gates_GateMutex_Handle__label__S
815a5344   ti_sysbios_gates_GateMutex_Instance_State_sem__O
81592e00   ti_sysbios_gates_GateMutex_Instance_finalize__F
81591a00   ti_sysbios_gates_GateMutex_Instance_init__F
815a4e78   ti_sysbios_gates_GateMutex_Module__FXNS__C
815a5348   ti_sysbios_gates_GateMutex_Module__diagsEnabled__C
815a534c   ti_sysbios_gates_GateMutex_Module__diagsIncluded__C
815a5350   ti_sysbios_gates_GateMutex_Module__diagsMask__C
815a5558   ti_sysbios_gates_GateMutex_Module__id__C
815b41c0   ti_sysbios_gates_GateMutex_Module__root__V
815a4f48   ti_sysbios_gates_GateMutex_Object__DESC__C
815a5160   ti_sysbios_gates_GateMutex_Object__PARAMS__C
8158f080   ti_sysbios_gates_GateMutex_Object__create__S
81591a60   ti_sysbios_gates_GateMutex_Object__delete__S
815b4e80   ti_sysbios_gates_GateMutex_Object__table__V
81578200   ti_sysbios_gates_GateMutex_enter__E
81592e40   ti_sysbios_gates_GateMutex_leave__E
81594480   ti_sysbios_gates_GateMutex_query__E
81594480   ti_sysbios_gates_GateMutex_query__F
815943e0   ti_sysbios_hal_Cache_CacheProxy_wbInv__E
815943e0   ti_sysbios_hal_Cache_wbInv__E
815a5354   ti_sysbios_hal_Hwi_E_stackOverflow__C
815944a0   ti_sysbios_hal_Hwi_HwiProxy_Module__startupDone__S
81594320   ti_sysbios_hal_Hwi_HwiProxy_clearInterrupt__E
81592cc0   ti_sysbios_hal_Hwi_HwiProxy_disableInterrupt__E
81592d00   ti_sysbios_hal_Hwi_HwiProxy_enableInterrupt__E
815919a0   ti_sysbios_hal_Hwi_HwiProxy_restoreInterrupt__E
81594340   ti_sysbios_hal_Hwi_HwiProxy_startup__E
81594360   ti_sysbios_hal_Hwi_HwiProxy_switchFromBootStack__E
815a555c   ti_sysbios_hal_Hwi_Module__id__C
815b41c8   ti_sysbios_hal_Hwi_Module__root__V
815944c0   ti_sysbios_hal_Hwi_Module_startup__E
815944c0   ti_sysbios_hal_Hwi_Module_startup__F
815b51b0   ti_sysbios_hal_Hwi_Object__table__V
8158f100   ti_sysbios_hal_Hwi_checkStack
81594320   ti_sysbios_hal_Hwi_clearInterrupt__E
81592cc0   ti_sysbios_hal_Hwi_disableInterrupt__E
81592d00   ti_sysbios_hal_Hwi_enableInterrupt__E
81591ac0   ti_sysbios_hal_Hwi_initStack
815919a0   ti_sysbios_hal_Hwi_restoreInterrupt__E
81594340   ti_sysbios_hal_Hwi_startup__E
81594360   ti_sysbios_hal_Hwi_switchFromBootStack__E
815b41d0   ti_sysbios_hal_Timer_Module__root__V
81592e80   ti_sysbios_hal_Timer_Module__startupDone__F
81592e80   ti_sysbios_hal_Timer_Module__startupDone__S
815944e0   ti_sysbios_hal_Timer_Module_startup__E
815944e0   ti_sysbios_hal_Timer_Module_startup__F
815b51b8   ti_sysbios_hal_Timer_Object__table__V
81594500   ti_sysbios_hal_Timer_TimerProxy_Module__startupDone__S
81594520   ti_sysbios_hal_Timer_TimerProxy_getExpiredCounts__E
81594540   ti_sysbios_hal_Timer_TimerProxy_getPeriod__E
81594560   ti_sysbios_hal_Timer_TimerProxy_setNextTick__E
815877e0   ti_sysbios_hal_Timer_TimerProxy_startup__E
815877e0   ti_sysbios_hal_Timer_startup__E
815a5358   ti_sysbios_heaps_HeapMem_A_align__C
815a535c   ti_sysbios_heaps_HeapMem_A_heapSize__C
815a5360   ti_sysbios_heaps_HeapMem_A_invalidFree__C
815a5364   ti_sysbios_heaps_HeapMem_A_zeroBlock__C
815a5368   ti_sysbios_heaps_HeapMem_E_memory__C
81592ec0   ti_sysbios_heaps_HeapMem_Handle__label__S
8143e080   ti_sysbios_heaps_HeapMem_Instance_State_0_buf__A
81579be0   ti_sysbios_heaps_HeapMem_Instance_init__F
81594580   ti_sysbios_heaps_HeapMem_Module_GateProxy_enter__E
815945a0   ti_sysbios_heaps_HeapMem_Module_GateProxy_leave__E
81594480   ti_sysbios_heaps_HeapMem_Module_GateProxy_query__E
815a4db4   ti_sysbios_heaps_HeapMem_Module__FXNS__C
815a536c   ti_sysbios_heaps_HeapMem_Module__diagsEnabled__C
815a5370   ti_sysbios_heaps_HeapMem_Module__diagsIncluded__C
815a5374   ti_sysbios_heaps_HeapMem_Module__diagsMask__C
815a5378   ti_sysbios_heaps_HeapMem_Module__gateObj__C
815a5560   ti_sysbios_heaps_HeapMem_Module__id__C
815b41d8   ti_sysbios_heaps_HeapMem_Module__root__V
815a4f68   ti_sysbios_heaps_HeapMem_Object__DESC__C
815a4f88   ti_sysbios_heaps_HeapMem_Object__PARAMS__C
815a537c   ti_sysbios_heaps_HeapMem_Object__count__C
8158f180   ti_sysbios_heaps_HeapMem_Object__create__S
81592f00   ti_sysbios_heaps_HeapMem_Object__delete__S
81592f40   ti_sysbios_heaps_HeapMem_Object__get__S
815b5168   ti_sysbios_heaps_HeapMem_Object__table__V
8154e5e0   ti_sysbios_heaps_HeapMem_alloc__E
8154d960   ti_sysbios_heaps_HeapMem_free__E
81589f60   ti_sysbios_heaps_HeapMem_getStats__E
8158ce60   ti_sysbios_heaps_HeapMem_init__I
815945c0   ti_sysbios_heaps_HeapMem_isBlocking__E
815a5380   ti_sysbios_heaps_HeapMem_reqAlignMask__C
815a5384   ti_sysbios_heaps_HeapMem_reqAlign__C
815a5388   ti_sysbios_knl_Clock_A_badThreadType__C
8157ec60   ti_sysbios_knl_Clock_Instance_finalize__F
8156abc0   ti_sysbios_knl_Clock_Instance_init__F
815a538c   ti_sysbios_knl_Clock_LM_begin__C
815a5390   ti_sysbios_knl_Clock_LM_tick__C
815a5394   ti_sysbios_knl_Clock_LW_delayed__C
815a5398   ti_sysbios_knl_Clock_Module_State_clockQ__O
815a539c   ti_sysbios_knl_Clock_Module__diagsEnabled__C
815a53a0   ti_sysbios_knl_Clock_Module__diagsIncluded__C
815a53a4   ti_sysbios_knl_Clock_Module__diagsMask__C
815a5564   ti_sysbios_knl_Clock_Module__id__C
815a5568   ti_sysbios_knl_Clock_Module__loggerDefined__C
815a53a8   ti_sysbios_knl_Clock_Module__loggerFxn1__C
815a53ac   ti_sysbios_knl_Clock_Module__loggerFxn2__C
815a53b0   ti_sysbios_knl_Clock_Module__loggerObj__C
815b41e0   ti_sysbios_knl_Clock_Module__root__V
815b41e8   ti_sysbios_knl_Clock_Module__state__V
8158f200   ti_sysbios_knl_Clock_Module_startup__E
8158f200   ti_sysbios_knl_Clock_Module_startup__F
815a4fa8   ti_sysbios_knl_Clock_Object__DESC__C
815a4e9c   ti_sysbios_knl_Clock_Object__PARAMS__C
8158cf00   ti_sysbios_knl_Clock_Object__create__S
81592f80   ti_sysbios_knl_Clock_Object__destruct__S
815945e0   ti_sysbios_knl_Clock_Params__init__S
8158f280   ti_sysbios_knl_Clock_doTick__I
8158f300   ti_sysbios_knl_Clock_getTicks__E
8158a020   ti_sysbios_knl_Clock_logTick__E
81583c20   ti_sysbios_knl_Clock_startI__E
81587700   ti_sysbios_knl_Clock_start__E
815a53b4   ti_sysbios_knl_Clock_tickMode__C
815a53b8   ti_sysbios_knl_Clock_tickPeriod__C
815a53bc   ti_sysbios_knl_Clock_tickSource__C
81568880   ti_sysbios_knl_Clock_workFunc__E
815a52a0   ti_sysbios_knl_Idle_funcList__A
815a52a8   ti_sysbios_knl_Idle_funcList__C
8158f380   ti_sysbios_knl_Idle_loop__E
81594600   ti_sysbios_knl_Queue_Instance_init__F
815b4214   ti_sysbios_knl_Queue_Module__root__V
815a4fc8   ti_sysbios_knl_Queue_Object__DESC__C
815a5178   ti_sysbios_knl_Queue_Object__PARAMS__C
8158f400   ti_sysbios_knl_Queue_Object__create__S
81594620   ti_sysbios_knl_Queue_Object__destruct__S
81594640   ti_sysbios_knl_Queue_Object__get__S
81594660   ti_sysbios_knl_Queue_empty__E
815a53c0   ti_sysbios_knl_Semaphore_A_badContext__C
815a53c4   ti_sysbios_knl_Semaphore_A_noEvents__C
815a53c8   ti_sysbios_knl_Semaphore_A_overflow__C
815a53cc   ti_sysbios_knl_Semaphore_Instance_State_pendQ__O
81592fc0   ti_sysbios_knl_Semaphore_Instance_finalize__F
8157eda0   ti_sysbios_knl_Semaphore_Instance_init__F
815a53d0   ti_sysbios_knl_Semaphore_LM_pend__C
815a53d4   ti_sysbios_knl_Semaphore_LM_post__C
815a53d8   ti_sysbios_knl_Semaphore_Module__diagsEnabled__C
815a53dc   ti_sysbios_knl_Semaphore_Module__diagsIncluded__C
815a53e0   ti_sysbios_knl_Semaphore_Module__diagsMask__C
815a556c   ti_sysbios_knl_Semaphore_Module__id__C
815a5570   ti_sysbios_knl_Semaphore_Module__loggerDefined__C
815a53e4   ti_sysbios_knl_Semaphore_Module__loggerFxn2__C
815a53e8   ti_sysbios_knl_Semaphore_Module__loggerFxn4__C
815a53ec   ti_sysbios_knl_Semaphore_Module__loggerObj__C
815b421c   ti_sysbios_knl_Semaphore_Module__root__V
815a4fe8   ti_sysbios_knl_Semaphore_Object__DESC__C
815a4ec0   ti_sysbios_knl_Semaphore_Object__PARAMS__C
8158f480   ti_sysbios_knl_Semaphore_Object__create__S
81591b20   ti_sysbios_knl_Semaphore_Object__delete__S
81593000   ti_sysbios_knl_Semaphore_Object__destruct__S
8158f500   ti_sysbios_knl_Semaphore_pendTimeout__I
81559760   ti_sysbios_knl_Semaphore_pend__E
8156ef80   ti_sysbios_knl_Semaphore_post__E
81594680   ti_sysbios_knl_Semaphore_reset__E
815a53f0   ti_sysbios_knl_Swi_LD_end__C
815a53f4   ti_sysbios_knl_Swi_LM_begin__C
815a53f8   ti_sysbios_knl_Swi_LM_post__C
815b4a10   ti_sysbios_knl_Swi_Module_State_0_readyQ__A
815a53fc   ti_sysbios_knl_Swi_Module__diagsEnabled__C
815a5400   ti_sysbios_knl_Swi_Module__diagsIncluded__C
815a5404   ti_sysbios_knl_Swi_Module__diagsMask__C
815a5574   ti_sysbios_knl_Swi_Module__id__C
815a5578   ti_sysbios_knl_Swi_Module__loggerDefined__C
815a5408   ti_sysbios_knl_Swi_Module__loggerFxn1__C
815a540c   ti_sysbios_knl_Swi_Module__loggerFxn4__C
815a5410   ti_sysbios_knl_Swi_Module__loggerObj__C
815b4224   ti_sysbios_knl_Swi_Module__root__V
815b422c   ti_sysbios_knl_Swi_Module__state__V
81591b80   ti_sysbios_knl_Swi_Module_startup__E
81591b80   ti_sysbios_knl_Swi_Module_startup__F
815a5414   ti_sysbios_knl_Swi_Object__count__C
81593040   ti_sysbios_knl_Swi_Object__get__S
815b4ff8   ti_sysbios_knl_Swi_Object__table__V
815946a0   ti_sysbios_knl_Swi_disable__E
8157eee0   ti_sysbios_knl_Swi_post__E
81583d20   ti_sysbios_knl_Swi_restoreHwi__E
81570b60   ti_sysbios_knl_Swi_run__I
81579d60   ti_sysbios_knl_Swi_schedule__I
8158f580   ti_sysbios_knl_Swi_startup__E
815a5418   ti_sysbios_knl_Task_A_badPriority__C
815a541c   ti_sysbios_knl_Task_A_badTaskState__C
815a5420   ti_sysbios_knl_Task_A_badThreadType__C
815a5424   ti_sysbios_knl_Task_A_badTimeout__C
815a5428   ti_sysbios_knl_Task_A_noPendElem__C
815a542c   ti_sysbios_knl_Task_E_spOutOfBounds__C
815a5430   ti_sysbios_knl_Task_E_stackOverflow__C
81593080   ti_sysbios_knl_Task_Handle__label__S
815b17c0   ti_sysbios_knl_Task_Instance_State_0_hookEnv__A
0c052b00   ti_sysbios_knl_Task_Instance_State_0_stack__A
815b17c8   ti_sysbios_knl_Task_Instance_State_1_hookEnv__A
0c054b00   ti_sysbios_knl_Task_Instance_State_1_stack__A
815b17d0   ti_sysbios_knl_Task_Instance_State_2_hookEnv__A
0c056b00   ti_sysbios_knl_Task_Instance_State_2_stack__A
81551e80   ti_sysbios_knl_Task_Instance_finalize__F
8155c8e0   ti_sysbios_knl_Task_Instance_init__F
815a5434   ti_sysbios_knl_Task_LD_block__C
815a5438   ti_sysbios_knl_Task_LD_exit__C
815a543c   ti_sysbios_knl_Task_LD_ready__C
815a5440   ti_sysbios_knl_Task_LM_setPri__C
815a5444   ti_sysbios_knl_Task_LM_sleep__C
815a5448   ti_sysbios_knl_Task_LM_switch__C
815b4a90   ti_sysbios_knl_Task_Module_State_0_readyQ__A
815a544c   ti_sysbios_knl_Task_Module_State_inactiveQ__O
815a5450   ti_sysbios_knl_Task_Module_State_terminatedQ__O
815a5454   ti_sysbios_knl_Task_Module__diagsEnabled__C
815a5458   ti_sysbios_knl_Task_Module__diagsIncluded__C
815a545c   ti_sysbios_knl_Task_Module__diagsMask__C
815a557c   ti_sysbios_knl_Task_Module__id__C
815a5580   ti_sysbios_knl_Task_Module__loggerDefined__C
815a5460   ti_sysbios_knl_Task_Module__loggerFxn2__C
815a5464   ti_sysbios_knl_Task_Module__loggerFxn4__C
815a5468   ti_sysbios_knl_Task_Module__loggerObj__C
815b4248   ti_sysbios_knl_Task_Module__root__V
815b4250   ti_sysbios_knl_Task_Module__state__V
81565820   ti_sysbios_knl_Task_Module_startup__E
81565820   ti_sysbios_knl_Task_Module_startup__F
815a5008   ti_sysbios_knl_Task_Object__DESC__C
815a4a0c   ti_sysbios_knl_Task_Object__PARAMS__C
815a546c   ti_sysbios_knl_Task_Object__count__C
81583e20   ti_sysbios_knl_Task_Object__create__S
81591be0   ti_sysbios_knl_Task_Object__delete__S
815946c0   ti_sysbios_knl_Task_Object__first__S
815930c0   ti_sysbios_knl_Task_Object__get__S
815a5470   ti_sysbios_knl_Task_Object__heap__C
815946e0   ti_sysbios_knl_Task_Object__next__S
815b4720   ti_sysbios_knl_Task_Object__table__V
81594700   ti_sysbios_knl_Task_Params__init__S
81594720   ti_sysbios_knl_Task_SupportProxy_Module__startupDone__S
815942e0   ti_sysbios_knl_Task_SupportProxy_checkStack__E
81594300   ti_sysbios_knl_Task_SupportProxy_getStackAlignment__E
81591820   ti_sysbios_knl_Task_SupportProxy_stackUsed__E
8158ee80   ti_sysbios_knl_Task_SupportProxy_start__E
8158e580   ti_sysbios_knl_Task_SupportProxy_swap__E
815a5474   ti_sysbios_knl_Task_allBlockedFunc__C
81591c40   ti_sysbios_knl_Task_allBlockedFunction__I
8157f020   ti_sysbios_knl_Task_blockI__E
81575c60   ti_sysbios_knl_Task_checkStacks__E
815a5478   ti_sysbios_knl_Task_defaultStackHeap__C
815a547c   ti_sysbios_knl_Task_defaultStackSize__C
8158f600   ti_sysbios_knl_Task_deleteTerminatedTasksFunc__I
815a5584   ti_sysbios_knl_Task_deleteTerminatedTasks__C
81594740   ti_sysbios_knl_Task_disable__E
81591ca0   ti_sysbios_knl_Task_enter__I
8156ae40   ti_sysbios_knl_Task_exit__E
81594760   ti_sysbios_knl_Task_getHookContext__E
815a4c50   ti_sysbios_knl_Task_hooks__A
815a52b0   ti_sysbios_knl_Task_hooks__C
815a5588   ti_sysbios_knl_Task_initStackFlag__C
815a5480   ti_sysbios_knl_Task_numConstructedTasks__C
815a5484   ti_sysbios_knl_Task_numPriorities__C
81573ca0   ti_sysbios_knl_Task_postInit__I
8158f680   ti_sysbios_knl_Task_restore__E
81570d80   ti_sysbios_knl_Task_schedule__I
81594780   ti_sysbios_knl_Task_self__E
815947a0   ti_sysbios_knl_Task_setHookContext__E
8155cca0   ti_sysbios_knl_Task_setPri__E
81593100   ti_sysbios_knl_Task_sleepTimeout__I
81568b20   ti_sysbios_knl_Task_sleep__E
81570fa0   ti_sysbios_knl_Task_startup__E
8158a0e0   ti_sysbios_knl_Task_stat__E
81579ee0   ti_sysbios_knl_Task_unblockI__E
815a5488   ti_sysbios_timers_timer64_Timer_A_notAvailable__C
815a548c   ti_sysbios_timers_timer64_Timer_E_cannotSupport__C
815b47f8   ti_sysbios_timers_timer64_Timer_Module_State_0_device__A
815b4ec0   ti_sysbios_timers_timer64_Timer_Module_State_0_gctrl__A
815b4f00   ti_sysbios_timers_timer64_Timer_Module_State_0_handles__A
815b4f40   ti_sysbios_timers_timer64_Timer_Module_State_0_intFreqs__A
815a5490   ti_sysbios_timers_timer64_Timer_Module__diagsEnabled__C
815a5494   ti_sysbios_timers_timer64_Timer_Module__diagsIncluded__C
815a5498   ti_sysbios_timers_timer64_Timer_Module__diagsMask__C
815a558c   ti_sysbios_timers_timer64_Timer_Module__id__C
815b4284   ti_sysbios_timers_timer64_Timer_Module__root__V
81593140   ti_sysbios_timers_timer64_Timer_Module__startupDone__F
81593140   ti_sysbios_timers_timer64_Timer_Module__startupDone__S
815b428c   ti_sysbios_timers_timer64_Timer_Module__state__V
81550320   ti_sysbios_timers_timer64_Timer_Module_startup__E
81550320   ti_sysbios_timers_timer64_Timer_Module_startup__F
815b4d70   ti_sysbios_timers_timer64_Timer_Object__table__V
815943c0   ti_sysbios_timers_timer64_Timer_TimerSupportProxy_enable__E
815a549c   ti_sysbios_timers_timer64_Timer_anyMask__C
815a54a0   ti_sysbios_timers_timer64_Timer_freqDivisor__C
8158f700   ti_sysbios_timers_timer64_Timer_getCount__E
8158f700   ti_sysbios_timers_timer64_Timer_getExpiredCounts__E
81573e80   ti_sysbios_timers_timer64_Timer_getFreq__E
8158f780   ti_sysbios_timers_timer64_Timer_getPeriod__E
815a54a4   ti_sysbios_timers_timer64_Timer_numLocalTimers__C
815a54a8   ti_sysbios_timers_timer64_Timer_numTimerDevices__C
815947c0   ti_sysbios_timers_timer64_Timer_setNextTick__E
81575e20   ti_sysbios_timers_timer64_Timer_setPeriodMicroSecs__E
815783a0   ti_sysbios_timers_timer64_Timer_start__E
815a5590   ti_sysbios_timers_timer64_Timer_startupNeeded__C
815877e0   ti_sysbios_timers_timer64_Timer_startup__E
8158a1a0   ti_sysbios_timers_timer64_Timer_stop__E
815b3888   tpseudo
815b3c18   udp6_stats
815b3bb4   udps
8158f800   unlink
815b3bd8   upseudo
815b1fd8   vlan_mcb
81591d00   vsprintf
8158cfa0   write
81546e54   writeNandPage
81591d60   writemsg
815a54ac   xdc_runtime_Assert_E_assertFailed__C
8158d040   xdc_runtime_Assert_raise__I
815a54b0   xdc_runtime_Core_A_initializedParams__C
815a54b4   xdc_runtime_Core_Module__diagsEnabled__C
815a54b8   xdc_runtime_Core_Module__diagsIncluded__C
815a54bc   xdc_runtime_Core_Module__diagsMask__C
815a5594   xdc_runtime_Core_Module__id__C
8158f880   xdc_runtime_Core_assignLabel__I
8158f900   xdc_runtime_Core_assignParams__I
8156b0c0   xdc_runtime_Core_createObject__I
81584020   xdc_runtime_Core_deleteObject__I
815a54c0   xdc_runtime_Error_E_generic__C
815a54c4   xdc_runtime_Error_E_memory__C
815a54c8   xdc_runtime_Error_Module__diagsEnabled__C
815a54cc   xdc_runtime_Error_Module__diagsIncluded__C
815a54d0   xdc_runtime_Error_Module__diagsMask__C
815a5598   xdc_runtime_Error_Module__loggerDefined__C
815a54d4   xdc_runtime_Error_Module__loggerFxn8__C
815a54d8   xdc_runtime_Error_Module__loggerObj__C
815b42a0   xdc_runtime_Error_Module__state__V
81593180   xdc_runtime_Error_check__E
81593180   xdc_runtime_Error_check__F
815947e0   xdc_runtime_Error_getMsg__E
815947e0   xdc_runtime_Error_getMsg__F
815931c0   xdc_runtime_Error_init__E
815931c0   xdc_runtime_Error_init__F
815a559c   xdc_runtime_Error_maxDepth__C
815a54dc   xdc_runtime_Error_policy__C
815878c0   xdc_runtime_Error_print__E
815878c0   xdc_runtime_Error_print__F
815a54e0   xdc_runtime_Error_raiseHook__C
8156b340   xdc_runtime_Error_raiseX__E
8156b340   xdc_runtime_Error_raiseX__F
81594800   xdc_runtime_Gate_enterSystem__E
81594800   xdc_runtime_Gate_enterSystem__F
81593200   xdc_runtime_Gate_leaveSystem__E
81593200   xdc_runtime_Gate_leaveSystem__F
815a54e4   xdc_runtime_IFilterLogger_Interface__BASE__C
815a54e8   xdc_runtime_IGateProvider_Interface__BASE__C
815a54ec   xdc_runtime_IHeap_Interface__BASE__C
815a54f0   xdc_runtime_ILogger_Interface__BASE__C
815a54f4   xdc_runtime_IModule_Interface__BASE__C
815a54f8   xdc_runtime_Log_L_error__C
815a54fc   xdc_runtime_LoggerBuf_E_badLevel__C
81593240   xdc_runtime_LoggerBuf_Handle__label__S
815b17d8   xdc_runtime_LoggerBuf_Instance_State_0_entryArr__A
81593280   xdc_runtime_LoggerBuf_Instance_finalize__F
8158a260   xdc_runtime_LoggerBuf_Instance_init__F
81594860   xdc_runtime_LoggerBuf_Module_GateProxy_enter__E
81594880   xdc_runtime_LoggerBuf_Module_GateProxy_leave__E
81594460   xdc_runtime_LoggerBuf_Module_GateProxy_query__E
815a4994   xdc_runtime_LoggerBuf_Module__FXNS__C
815a5500   xdc_runtime_LoggerBuf_Module__gateObj__C
815a55a0   xdc_runtime_LoggerBuf_Module__id__C
815b42a4   xdc_runtime_LoggerBuf_Module__root__V
815b42ac   xdc_runtime_LoggerBuf_Module__state__V
8158d0e0   xdc_runtime_LoggerBuf_Module_startup__E
8158d0e0   xdc_runtime_LoggerBuf_Module_startup__F
815a5028   xdc_runtime_LoggerBuf_Object__DESC__C
815a4e04   xdc_runtime_LoggerBuf_Object__PARAMS__C
815a5504   xdc_runtime_LoggerBuf_Object__count__C
815879a0   xdc_runtime_LoggerBuf_Object__create__S
81591dc0   xdc_runtime_LoggerBuf_Object__delete__S
815932c0   xdc_runtime_LoggerBuf_Object__get__S
815b5078   xdc_runtime_LoggerBuf_Object__table__V
815943a0   xdc_runtime_LoggerBuf_TimestampProxy_get64__E
815948a0   xdc_runtime_LoggerBuf_disable__E
815948a0   xdc_runtime_LoggerBuf_disable__F
815948c0   xdc_runtime_LoggerBuf_enable__E
815948c0   xdc_runtime_LoggerBuf_enable__F
815a55a4   xdc_runtime_LoggerBuf_filterByLevel__C
8158f980   xdc_runtime_LoggerBuf_filterOutEvent__I
81584120   xdc_runtime_LoggerBuf_getFilterLevel__E
81584120   xdc_runtime_LoggerBuf_getFilterLevel__F
815822e0   xdc_runtime_LoggerBuf_setFilterLevel__E
815822e0   xdc_runtime_LoggerBuf_setFilterLevel__F
815a5508   xdc_runtime_LoggerBuf_statusLogger__C
81593300   xdc_runtime_LoggerBuf_write0__E
81593300   xdc_runtime_LoggerBuf_write0__F
81593340   xdc_runtime_LoggerBuf_write1__E
81593340   xdc_runtime_LoggerBuf_write1__F
81593380   xdc_runtime_LoggerBuf_write2__E
81593380   xdc_runtime_LoggerBuf_write2__F
81578540   xdc_runtime_LoggerBuf_write4__E
81578540   xdc_runtime_LoggerBuf_write4__F
8156f1c0   xdc_runtime_LoggerBuf_write8__E
8156f1c0   xdc_runtime_LoggerBuf_write8__F
81594460   xdc_runtime_Main_Module_GateProxy_query__E
815948e0   xdc_runtime_Memory_HeapProxy_alloc__E
81594900   xdc_runtime_Memory_HeapProxy_free__E
815a55a8   xdc_runtime_Memory_Module__id__C
815b42b4   xdc_runtime_Memory_Module__state__V
81587a80   xdc_runtime_Memory_alloc__E
81587a80   xdc_runtime_Memory_alloc__F
81591e20   xdc_runtime_Memory_calloc__E
81591e20   xdc_runtime_Memory_calloc__F
815a550c   xdc_runtime_Memory_defaultHeapInstance__C
815933c0   xdc_runtime_Memory_free__E
815933c0   xdc_runtime_Memory_free__F
815b42b8   xdc_runtime_Registry_Module__state__V
81593400   xdc_runtime_Registry_findById__E
81593400   xdc_runtime_Registry_findById__F
815b42c0   xdc_runtime_Startup_Module__state__V
00000001   xdc_runtime_Startup__EXECFXN__C
00000001   xdc_runtime_Startup__RESETFXN__C
815a5510   xdc_runtime_Startup_execImpl__C
81584220   xdc_runtime_Startup_exec__E
81584220   xdc_runtime_Startup_exec__F
81594920   xdc_runtime_Startup_exec__I
815a52b8   xdc_runtime_Startup_firstFxns__A
815a52c0   xdc_runtime_Startup_firstFxns__C
815a52c8   xdc_runtime_Startup_lastFxns__A
815a52d0   xdc_runtime_Startup_lastFxns__C
815a5514   xdc_runtime_Startup_maxPasses__C
81594940   xdc_runtime_Startup_reset__I
815a50e0   xdc_runtime_Startup_sfxnRts__A
815a5518   xdc_runtime_Startup_sfxnRts__C
815a4b20   xdc_runtime_Startup_sfxnTab__A
815a551c   xdc_runtime_Startup_sfxnTab__C
8156cd80   xdc_runtime_Startup_startMods__I
81591e80   xdc_runtime_SysStd_abort__E
81591e80   xdc_runtime_SysStd_abort__F
81594960   xdc_runtime_SysStd_exit__E
81594960   xdc_runtime_SysStd_exit__F
81594980   xdc_runtime_SysStd_putch__E
81594980   xdc_runtime_SysStd_putch__F
815949a0   xdc_runtime_SysStd_ready__E
815949a0   xdc_runtime_SysStd_ready__F
815949c0   xdc_runtime_System_Module_GateProxy_enter__E
815949e0   xdc_runtime_System_Module_GateProxy_leave__E
81594460   xdc_runtime_System_Module_GateProxy_query__E
815b50e0   xdc_runtime_System_Module_State_0_atexitHandlers__A
815a5520   xdc_runtime_System_Module__gateObj__C
815b42c8   xdc_runtime_System_Module__state__V
81594a00   xdc_runtime_System_Module_startup__E
81594a00   xdc_runtime_System_Module_startup__F
81591e80   xdc_runtime_System_SupportProxy_abort__E
81594960   xdc_runtime_System_SupportProxy_exit__E
81594980   xdc_runtime_System_SupportProxy_putch__E
815949a0   xdc_runtime_System_SupportProxy_ready__E
81593440   xdc_runtime_System_abort__E
81593440   xdc_runtime_System_abort__F
81593480   xdc_runtime_System_aprintf__E
81591ee0   xdc_runtime_System_aprintf_va__E
81591ee0   xdc_runtime_System_aprintf_va__F
8158fa00   xdc_runtime_System_atexit__E
8158fa00   xdc_runtime_System_atexit__F
81591ee0   xdc_runtime_System_avprintf__E
81591ee0   xdc_runtime_System_avprintf__F
81544680   xdc_runtime_System_doPrint__I
81594a20   xdc_runtime_System_exit__E
81594a20   xdc_runtime_System_exit__F
815a5524   xdc_runtime_System_extendFxn__C
8158a320   xdc_runtime_System_formatNum__I
81594a40   xdc_runtime_System_lastFxn__I
815a5528   xdc_runtime_System_maxAtexitHandlers__C
8156cfe0   xdc_runtime_System_printfExtend__I
815934c0   xdc_runtime_System_printf__E
81591f40   xdc_runtime_System_printf_va__E
81591f40   xdc_runtime_System_printf_va__F
8158fa80   xdc_runtime_System_rtsExit__I
81594a60   xdc_runtime_System_sprintf_va__E
81594a60   xdc_runtime_System_sprintf_va__F
81591f40   xdc_runtime_System_vprintf__E
81591f40   xdc_runtime_System_vprintf__F
81594a60   xdc_runtime_System_vsprintf__E
81594a60   xdc_runtime_System_vsprintf__F
815b42d4   xdc_runtime_Text_Module__state__V
815a55ac   xdc_runtime_Text_charCnt__C
81598118   xdc_runtime_Text_charTab__A
815a552c   xdc_runtime_Text_charTab__C
81591fa0   xdc_runtime_Text_cordText__E
81591fa0   xdc_runtime_Text_cordText__F
815a55b0   xdc_runtime_Text_isLoaded__C
815a5530   xdc_runtime_Text_nameEmpty__C
815a5534   xdc_runtime_Text_nameStatic__C
815a5538   xdc_runtime_Text_nameUnknown__C
815a37a8   xdc_runtime_Text_nodeTab__A
815a553c   xdc_runtime_Text_nodeTab__C
8158fb00   xdc_runtime_Text_printVisFxn__I
81582400   xdc_runtime_Text_putLab__E
81582400   xdc_runtime_Text_putLab__F
81584320   xdc_runtime_Text_putMod__E
81584320   xdc_runtime_Text_putMod__F
8157a060   xdc_runtime_Text_putSite__E
8157a060   xdc_runtime_Text_putSite__F
815a55b4   xdc_runtime_Text_registryModsLastId__C
81593500   xdc_runtime_Text_ropeText__E
81593500   xdc_runtime_Text_ropeText__F
815a55b8   xdc_runtime_Text_unnamedModsLastId__C
81584420   xdc_runtime_Text_visitRope2__I
815a5540   xdc_runtime_Text_visitRopeFxn__C
81594a80   xdc_runtime_Text_visitRope__I
8158fb80   xdc_runtime_Text_xprintf__I
81545020   xmc_setup


GLOBAL SYMBOLS: SORTED BY Symbol Address 

address    name
--------   ----
00000000   _argsize
00000001   __TI_args_main
00000001   xdc_runtime_Startup__EXECFXN__C
00000001   xdc_runtime_Startup__RESETFXN__C
00001000   __TI_STACK_SIZE
00820000   gHostDesc
00824000   queueFree
00826000   qmssGObj
00826400   gPAInst
00826500   gMemL2Ram
008268e8   gMemL3Ram
00827888   _stack
00828888   __TI_STACK_END
00828890   DebugLog
00829000   ti_sysbios_family_c64p_Hwi0
00829020   ti_sysbios_family_c64p_Hwi1
00829040   ti_sysbios_family_c64p_Hwi2
00829060   ti_sysbios_family_c64p_Hwi3
00829080   ti_sysbios_family_c64p_Hwi4
008290a0   ti_sysbios_family_c64p_Hwi5
008290c0   ti_sysbios_family_c64p_Hwi6
008290e0   ti_sysbios_family_c64p_Hwi7
00829100   ti_sysbios_family_c64p_Hwi8
00829120   ti_sysbios_family_c64p_Hwi9
00829140   ti_sysbios_family_c64p_Hwi10
00829160   ti_sysbios_family_c64p_Hwi11
00829180   ti_sysbios_family_c64p_Hwi12
008291a0   ti_sysbios_family_c64p_Hwi13
008291c0   ti_sysbios_family_c64p_Hwi14
008291e0   ti_sysbios_family_c64p_Hwi15
00829200   cppiObject
00829980   gPaTxQHnd
008299a4   gTxReturnQHnd
008299a8   gTxFreeQHnd
008299ac   gRxFreeQHnd
008299b0   gRxQHnd
008299b4   gPaCfgCmdRespQHnd
008299b8   gRxFlowHnd
008299c0   gPaL2Handles
008299e8   gPaL3Handles
00829a38   gPaL4Handles
00829b80   gHiPriAccumList
00829c80   gAccChannelNum
00829c84   gTxPort
00829c88   gTxCounter
00829c8c   gRxCounter
00829c90   gTxDropCounter
00829c94   gRxDropCounter
00829c98   __CIOBUF_
00829dc0   gGlobalFreeQHnd
00829dc8   gPassCpdmaTxChanHnd
00829df0   gPassCpdmaRxChanHnd
00829e50   gPassCpdmaHnd
00829e54   gPAInstHnd
00829e58   gQPopErrorCounter
00829e5c   gQPushErrorCounter
0c000000   ti_ndk_config_Global_pBufMem
0c04e000   ti_ndk_config_Global_pHdrMem
0c052b00   ti_sysbios_knl_Task_Instance_State_0_stack__A
0c054b00   ti_sysbios_knl_Task_Instance_State_1_stack__A
0c056b00   ti_sysbios_knl_Task_Instance_State_2_stack__A
80000000   __ASM__
80000000   gRxBuffer
80000070   __ISA__
80000088   __PLAT__
800000b0   __TARG__
800000d8   __TRDR__
81312d00   htmlbuf
81406f40   POST_names
81407260   POST_values
8140c260   POST_files
8140c668   INDEXHTML
8140d9a8   DEFAULTCSS
8140e878   BENCHHTML
8140f848   NDKPARMSHTML
81410e80   NDKBENCHMARKJAR
81413d70   NDKLOOPSTARTHTML
81415620   CREDITHTML
81416070   I2CHTML
81417870   INFOHTML
81418688   BANNER
8142f890   IMAGE1
8142fbc8   IMAGE2
81433388   IMAGE3
81433550   DSPCHIPGIF
81435888   WAITINGGIF
814362c0   C6678_SMALLGIF
81439430   C6670_SMALLGIF
8143c8b8   LOGOBAR
8143df00   gEmacStats
8143e020   BindFindByHost
8143e080   ti_sysbios_heaps_HeapMem_Instance_State_0_buf__A
815322c0   sendclient
81532530   ndkThroughputBench
815347e0   nimu_gettxdrops
815347ec   nimu_getrxdrops
815347f8   emac_display_linkstatus
81534858   Verify_Init
81534a04   Switch_update_addr
81534a4c   Setup_Tx
81534cec   Setup_Rx
815350ec   Init_Switch
815351c8   Init_PASS
81535210   Init_MDIO
81535214   Init_MAC
81535344   Init_Cpsw
81535578   Add_MACAddress
81535d58   EmacRxPktISR
81536620   serial_num_isvalid
81536650   platform_write_configure
81536668   platform_uart_write
81536678   platform_write
81536778   platform_uart_set_baudrate
815367b4   platform_delay
815367f4   platform_uart_read
81536854   platform_uart_init
81536870   platform_get_phy_addr
81536874   platform_phy_link_status
815368c4   platform_offset_to_blocknpage
81536984   platform_led
815369ac   platform_get_coreid
815369b8   platform_internal_memory_test
81536db0   platform_init
815370a0   platform_get_macaddr
815370f8   platform_device_open
81537204   platform_device_read
81537320   platform_device_close
81537420   platform_get_info
815376f8   platform_get_emac_info
81537750   platform_external_memory_test
815378c0   platform_device_write_spare_data
81537930   platform_blocknpage_to_offset
815379c8   platform_device_write
81537db8   platform_device_read_spare_data
81537e2c   platform_device_mark_block_bad
81537f20   platform_device_erase_block
81537fb4   platform_delaycycles
81537fe0   Convert_CoreLocal2GlobalAddr
81538060   TcpInput
81539a60   TCP6Input
8153b400   TcpOutput
8153c640   CreateIPUse
8153c988   CreatehtmlSockets
8153c9e0   CreateRoute
8153d0b8   serveInformationPage
8153d880   TCP6Output
8153ea00   ndkLoopbackStop
8153ebcc   ndkLoopbackStart
8153fa80   html
8153fb0c   html_var
8153fb48   html_start
8153fb80   html_processPost
815404f4   html_processFileUpload
815405a0   html_getsize
815405ac   html_getpage
815405b8   html_getValueFor
81540638   html_getNumberPostVars
81540644   html_end
815406e0   IPRxPacket
81541260   main
81541284   hpdspuaStart
81541b08   EVM_init
81541bc4   DHCP_reset
81541c88   CheckDHCPOptions
81542880   res_mgr_stop_qmss
81542898   res_mgr_stop_cppi
8154290c   res_mgr_qmss_get_freeq
81542920   res_mgr_init_qmss
81542b88   res_mgr_init_pass
81542d54   res_mgr_init_cppi
81542ef4   res_mgr_get_painstance
81542f04   res_mgr_cppi_get_passhandle
81542f10   QMSS_QPUSHDESCSIZE
81543064   QMSS_QPUSH
815431ac   QMSS_QPOP
81543320   IPTxPacket
81543ce0   lcpInput
81544680   xdc_runtime_System_doPrint__I
81545020   xmc_setup
81545038   prog_pll1_values
81545144   SetPaPllConfig
8154524c   SetDDR3PllConfig
81545338   PowerUpDomains
81545430   DDR3Init
81545674   CorePllcHwSetup
815458ac   CorePllcGetHwSetup
815462c0   httpClientProcess
81546b60   ndelay
81546c90   NandReadSpareArea
81546d40   NandWriteDataBytes
81546d88   NandWritePage
81546e54   writeNandPage
81546f10   NandReadPage
81546fb8   readNandPage
81547158   nandInit
8154716c   nandFlashBlockErase
815471e4   NandWriteSpareArea
815472a8   NandGetDetails
815473a0   Qmss_insertMemoryRegion
81547b80   ipcpInput
815492e0   SockSet
81549aa0   fdPoll
8154a260   i2cEepromWriteBlock
8154a42c   i2cEepromWriteByteAddr
8154a530   i2cEepromWrite
8154a5f0   i2cEepromRead
8154a710   i2cEepromMacWrite
8154a844   i2cEepromMacRead
8154a9e0   ti_sysbios_family_c64p_Exception_handler__I
8154b160   Pa_addMac
8154b880   serveFlashPage
8154c620   ICMPv6RecvRA
8154cca0   Cppi_configureRxFlow
8154d960   ti_sysbios_heaps_HeapMem_free__E
8154dfc0   Rt6Create
8154e5e0   ti_sysbios_heaps_HeapMem_alloc__E
8154f1e0   IPReasm
8154f7a0   __c6xabi_divd
81550320   ti_sysbios_timers_timer64_Timer_Module_startup__E
81550320   ti_sysbios_timers_timer64_Timer_Module_startup__F
815508e0   ICMPInput
81550e80   pppEvent
81551400   IPv6IPAddressToString
81551960   SockNew
81551e80   ti_sysbios_knl_Task_Instance_finalize__F
81552380   UdpInput
81552d40   serveStatisticsPage
81553220   Cppi_txChannelOpen
815536e0   Sock6Connect
81553ba0   Sock6Set
81554060   serveFlashReadPage
81554520   RemoveWebFiles
815546a0   AddWebFiles
815549e0   Bind6New
81554e80   LLIRxPacket
81555320   Sock6Recv
815557c0   SockRecv
81555c60   _printfi
81556520   pppNew
81556980   spi_xfer
81556ad4   spi_write_word
81556b34   spi_release
81556b50   spi_read_word
81556bc4   spi_cmd_write
81556bf8   spi_cmd_read
81556c30   spi_cmd
81556c78   spi_claim
81556de0   Cppi_rxChannelOpen
81557220   Sock6New
81557660   chapInput
81557aa0   fdSelect
81558b60   Sock6Send
81558f60   efs_filecheck
81559360   serveEepromReadPage
81559760   ti_sysbios_knl_Semaphore_pend__E
81559b60   IPv6TxFragPacket
81559f40   processDiagnosticRequest
8155a320   serveDiagnosticPage
8155a700   serveFlashWritePage
8155aae0   Cppi_initDescriptor
8155aea0   IPv6TxPacket
8155b620   SockSend
8155b9e0   TCP6TimeoutCheck
8155bda0   TcpTimeoutCheck
8155c160   strtol
8155c5a4   nor_write
8155c6b8   nor_read
8155c72c   nor_init
8155c794   nor_get_details
8155c800   nor_erase
8155c8e0   ti_sysbios_knl_Task_Instance_init__F
8155cca0   ti_sysbios_knl_Task_setPri__E
8155d060   NIMUIoctl
8155d400   RtCreate
8155d7a0   SBRead
8155db40   _mmCheck
8155dee0   fputs
8155e280   papInput
8155e620   ICMPv6RxPacket
8155e9a0   IGMPInput
8155ed20   Sock6Notify
8155f0a0   SockConnect
8155f420   SockNotify
8155f7a0   dhcpPacketProcess
8155fb20   fpgaReadConfigurationRegister
8155fb98   getFpgaDevID
8155fbd8   getBoardVersion
8155fc18   fpgaWriteConfigurationRegister
8155fc90   fpgaGetUserSwitch
8155fc90   platform_get_switch_state
8155fcc0   fpgaGetAMCDetect
8155fce4   fpgaEnableNorWriteProtect
8155fd10   fpgaEnableNandWriteProtect
8155fd40   fpgaEnableEepromWriteProtect
8155fd6c   fpgaDisableNorWriteProtect
8155fd98   fpgaDisableNandWriteProtect
8155fdc8   fpgaDisableEepromWriteProtect
8155fdf4   fpgaControlUserLEDs
8155fea0   ICMPv6SendParameterProblem
81560560   LLITxIpPacket
815608c0   eccCorrectData
81560b40   eccComputeECC
81560c20   Pa_create
81560f60   Qmss_init
815612a0   mmAlloc
815615e0   pppoeSI
81561920   CfgAddEntry
81561f60   ICMPv6RecvRedirect
81562be0   ICMPv6RecvNS
81562ee0   ICMPv6SendDstUnreachable
815631e0   ICMPv6SendTimeExceeded
815637e0   Sock6PcbBind
81563ae0   Udp6Input
81563de0   inet_aton
815640e0   configSerdes
81564240   Init_SGMII
815643e0   ti_sysbios_family_c64p_Hwi_dispatchC__I
815649c0   Pa_forwardResult
81564ca0   Rt6Find
81565260   UdpOutput
81565820   ti_sysbios_knl_Task_Module_startup__E
81565820   ti_sysbios_knl_Task_Module_startup__F
81565b00   BindNew
81565dc0   DNSGetReply
81566340   SB6Read
81566600   Sock6PcbResolve
815668c0   Udp6Output
81566b80   pppInput
81566e40   IPv6ParseExtnHeaders
815670e0   NodeAdd
81567380   Rt6Free
81567620   RtFind
81567b60   SockClose
81567e00   TCP6PrSetOption
815680a0   TcpPrSetOption
815686e4   serveTaskPage
81568880   ti_sysbios_knl_Clock_workFunc__E
81568b20   TaskSleep
81568b20   ti_sysbios_knl_Task_sleep__E
81568dc0   DHCPOpen
81569040   ICMPGenPacket
815697c0   SockPcbResolve
81569a40   SockRecvNC
81569cc0   TCP6GenPacket
8156a940   gpioWriteDataBus
8156a958   gpioSetRisingEdgeInterrupt
8156a988   gpioSetOutput
8156a9ac   gpioSetFallingEdgeInterrupt
8156a9d8   gpioSetDirection
8156aa44   gpioSetDataBusDirection
8156aa70   gpioSetDataBus
8156aa7c   gpioReadInput
8156aab0   gpioReadDataBus
8156aac8   gpioInit
8156ab20   gpioEnableGlobalInterrupt
8156ab30   gpioDisableGlobalInterrupt
8156ab44   gpioClearRisingEdgeInterrupt
8156ab64   gpioClearOutput
8156ab88   gpioClearFallingEdgeInterrupt
8156abac   gpioClearDataBus
8156abc0   ti_sysbios_knl_Clock_Instance_init__F
8156ae40   TaskExit
8156ae40   ti_sysbios_knl_Task_exit__E
8156b0c0   xdc_runtime_Core_createObject__I
8156b340   xdc_runtime_Error_raiseX__E
8156b340   xdc_runtime_Error_raiseX__F
8156b5c0   ICMPv6SendNA
8156b820   ICMPv6SendNS
8156ba80   LLI6TxIPPacket
8156bce0   NIMUReceivePacket
8156bf40   RawEthSockSet
8156c1a0   SB6Write
8156c400   SBWrite
8156c660   Sock6Close
8156c8c0   SockPcbBind
8156cb20   httpParseRecv
8156cd80   xdc_runtime_Startup_startMods__I
8156cfe0   xdc_runtime_System_printfExtend__I
8156d240   Cppi_open
8156d6c0   DaemonNew
8156d900   Pa_resetControl
8156db40   PipeRecv
8156dd80   RawInput
8156dfc0   __c6xabi_divull
8156e8c0   dhcpState
8156eb00   Osal_qmssMtCsExit
8156eb04   Osal_qmssMtCsEnter
8156eb08   Osal_qmssMalloc
8156eb30   Osal_qmssFree
8156eb4c   Osal_qmssEndMemAccess
8156eb50   Osal_qmssCsExit
8156eb64   Osal_qmssCsEnter
8156eb98   Osal_qmssBeginMemAccess
8156eba0   Osal_platformSpiCsExit
8156ebb0   Osal_platformSpiCsEnter
8156ebe8   Osal_platformMalloc
8156ec10   Osal_platformFree
8156ec2c   Osal_paMtCsExit
8156ec30   Osal_paMtCsEnter
8156ec34   Osal_paEndMemAccess
8156ec38   Osal_paBeginMemAccess
8156ec40   Osal_nimuMalloc
8156ec68   Osal_nimuFree
8156ec84   Osal_cppiMalloc
8156ecac   Osal_cppiFree
8156ecc8   Osal_cppiEndMemAccess
8156eccc   Osal_cppiCsExit
8156ece0   Osal_cppiCsEnter
8156ed14   Osal_cppiBeginMemAccess
8156ed40   ti_sysbios_family_c64p_Exception_internalHandler__I
8156ef80   ti_sysbios_knl_Semaphore_post__E
8156f1c0   xdc_runtime_LoggerBuf_write8__E
8156f1c0   xdc_runtime_LoggerBuf_write8__F
8156f840   ICMPv6RecvNA
8156fc80   IPv6RxPacket
8156fea0   RawEthSockNew
81570500   dhcpVerifyMessage
81570720   fputc
81570b60   ti_sysbios_knl_Swi_run__I
81570d80   ti_sysbios_knl_Task_schedule__I
81570fa0   ti_sysbios_knl_Task_startup__E
815711c0   IPv6ParseFragHdr
815713c0   LLI6New
815717c0   Qmss_programAccumulator
815719c0   RTCReport
81571bc0   Raw6Output
81571fc0   ti_sysbios_family_c64p_Hwi_dispatchAlways
815721c0   accept
815725c0   cppi_internal_heap_add
815729c0   setvbuf
81572f80   Rt6Modify
81573340   TcpGenPacket
81573700   dhcpSocketOpen
815738e0   recvnc
81573ac0   sendto
81573ca0   ti_sysbios_knl_Task_postInit__I
81573e80   ti_sysbios_timers_timer64_Timer_getFreq__E
81574060   CfgExecute
81574220   Cppi_channelClose
815743e0   Cppi_initCfg
815745a0   IPGetRoute
81574920   LLIGenArpPacket
81574e60   TcpTimeoutRexmt
81575020   _LLITimeoutCheck
81575560   fdClose
81575720   serveFlashErasePage
815758e0   recvncfrom
81575aa0   UartWriteData
81575ae0   UartSetBaudRate
81575b08   UartReadData
81575b14   UartReadBaudRate
81575b48   UartIsDataReady
81575b64   UartInit
81575c60   ti_sysbios_knl_Task_checkStacks__E
81575e20   ti_sysbios_timers_timer64_Timer_setPeriodMicroSecs__E
81575fe0   Bind6Msg
81576180   CfgRemoveEntry
81576320   DNSResolveQuery
815764c0   HOSTrename
81576800   IPv6FragMsg
81576b40   NC_NetStart
81576ce0   NodeTreeFree
81576e80   Pa_downloadImage
81577020   Raw6Input
81577360   SockCreatePacket
815776a0   TCP6TimeoutRexmt
81577840   __c6xabi_divul
815779e0   cgiParseVars
81577b80   dhcpBuildOptions
81577d20   getpeername
81577ec0   getsockname
81578200   ti_sysbios_gates_GateMutex_enter__E
815783a0   ti_sysbios_timers_timer64_Timer_start__E
81578540   xdc_runtime_LoggerBuf_write4__E
81578540   xdc_runtime_LoggerBuf_write4__F
815786e0   Bind6GetGlobalAddress
81578860   IGMPMsg
815789e0   LLIAddStaticEntry
81578b60   NIMURegister
815792e0   bind
81579460   connect
815795e0   dhcpBuildRequest
81579760   llEnter
81579a60   ti_sysbios_family_c64p_Exception_dispatch__E
81579be0   ti_sysbios_heaps_HeapMem_Instance_init__F
81579d60   ti_sysbios_knl_Swi_schedule__I
81579ee0   ti_sysbios_knl_Task_unblockI__E
8157a060   xdc_runtime_Text_putSite__E
8157a060   xdc_runtime_Text_putSite__F
8157a1e0   CfgGetEntry
8157a340   CfgGetNextEntry
8157a4a0   DbgPrintf
8157a8c0   PBM_free
8157ab80   PipeSend
8157ace0   RawOutput
8157afa0   RtWalkNext
8157b260   Sock6Check
8157b3c0   Sock6CreatePacket
8157b520   Sock6PcbConnect
8157b680   SockCheck
8157b7e0   SockGetPcb
8157b940   SockPcbConnect
8157bc00   TCP6TimeoutKeep
8157bd60   TcpTimeoutKeep
8157bec0   authInit
8157c2e0   setsockopt
8157c440   telnetClientProcess
8157c5a0   Bind6DADCheck
8157c6e0   Bind6Free
8157c820   CSL_chipReadReg
8157c960   ExecOpen
8157caa0   ICMPSendRtAdv
8157cbe0   IGMPJoin
8157cd20   IPv6DisplayIPAddress
8157cfa0   LLINew
8157d0e0   NodeFind
8157d220   NodeWalk
8157d360   PBM_alloc
8157d5e0   SB6New
8157d860   Sock6Accept
8157d9a0   Sock6Listen
8157dae0   SockAccept
8157dc20   SockListen
8157dd60   SockPcbCtlError
8157dea0   _auto_init_elf
8157e260   dhcpDecodeType
8157e4e0   httpAuthenticationReq
8157e620   mmCopy
8157e760   recv
8157e8a0   send
8157e9e0   ti_sysbios_family_c64p_Hwi_Module_startup__E
8157e9e0   ti_sysbios_family_c64p_Hwi_Module_startup__F
8157eb20   ti_sysbios_family_c66_Cache_Module_startup__E
8157eb20   ti_sysbios_family_c66_Cache_Module_startup__F
8157ec60   ti_sysbios_knl_Clock_Instance_finalize__F
8157eda0   ti_sysbios_knl_Semaphore_Instance_init__F
8157eee0   ti_sysbios_knl_Swi_post__E
8157f020   ti_sysbios_knl_Task_blockI__E
8157f280   BindFree
8157f3a0   CfgFree
8157f4c0   DNSReplyFree
8157f5e0   DaemonFree
8157f5e0   TelnetClose
8157f5e0   httpClose
8157f700   FdWaitEvent
8157f820   IGMPLeaveHostGroup
8157f940   IPMsg
8157fca0   IPv6Init
8157fdc0   IsICMPv6ErrorPkt
8157fee0   MD5Update
81580000   MLDJoinGroup
81580120   NC_SystemOpen
81580240   NIMUAddEthernetHeader
81580360   Qmss_disableAccumulator
81580480   RawEthRxPacket
815805a0   RawEthSockRecvNC
815806c0   RawEthTxPacket
815807e0   SBNew
81580b40   Sock6Disconnect
81580c60   Sock6Shutdown
81580ea0   SockShutdown
81580fc0   TCP6PrAttach
815810e0   TcpPrAttach
81581200   TelnetOpen
81581320   _RtNodeInsert
81581440   _closefile
81581680   _mmInit
815818c0   efs_createfilecb
815819e0   fdOpenSession
81581b00   fseek
81581c20   httpOpen
81581d40   httpSendStatusLine
81581e60   lcpOpen
81581f80   lcpReject
815821c0   socket
815822e0   xdc_runtime_LoggerBuf_setFilterLevel__E
815822e0   xdc_runtime_LoggerBuf_setFilterLevel__F
81582400   xdc_runtime_Text_putLab__E
81582400   xdc_runtime_Text_putLab__F
81582520   CfgNew
81582620   CfgSetExecuteOrder
81582720   HOSTlseek
81582920   IPv6GetSubnetMaskFromBits
81582b20   RTCMsg
81582c20   RawEthSockCheck
81582d20   RtRedirect
81582e20   SockValidateRoute
81583020   TCP6PrInherit
81583120   TCP6XmitTimer
81583220   TcpPrInherit
81583320   TcpXmitTimer
81583420   _RtNodeRemove
81583520   _wrt_ok
81583620   fdint_unlockfd
81583820   listen
81583920   mmFree
81583b20   ti_sysbios_family_c64p_EventCombiner_dispatch__E
81583b20   ti_sysbios_family_c64p_EventCombiner_dispatch__F
81583c20   ti_sysbios_knl_Clock_startI__E
81583d20   ti_sysbios_knl_Swi_restoreHwi__E
81583e20   ti_sysbios_knl_Task_Object__create__S
81584020   xdc_runtime_Core_deleteObject__I
81584120   xdc_runtime_LoggerBuf_getFilterLevel__E
81584120   xdc_runtime_LoggerBuf_getFilterLevel__F
81584220   xdc_runtime_Startup_exec__E
81584220   xdc_runtime_Startup_exec__F
81584320   xdc_runtime_Text_putMod__E
81584320   xdc_runtime_Text_putMod__F
81584420   xdc_runtime_Text_visitRope2__I
81584520   Bind6GetLinkLocalAddress
81584600   CfgGetEntryCnt
815846e0   DHCPClose
815847c0   HOSTopen
815848a0   IGMPLeave
81584a60   IPv6PTRStringToIPAddress
81584b40   LLI6Msg
81584c20   LLI6Update
81584fa0   NodeDeRef
81585160   NodeTreeNew
81585240   PBMQ_enq
81585320   PBM_copy
81585400   RawEthSockNotify
815854e0   RawEthSockPcbAttach
815855c0   RawEthSockSend
815856a0   Route6Msg
81585780   RtDeRef
81585860   RtRemove
81585940   SBReadNC
81585a20   SBSetMax
81585b00   Sock6SpawnAbort
81585be0   Sock6ValidateRoute
81585cc0   SockDisconnect
81585da0   SockSpawnAbort
81585e80   TCP6PrDetach
81585f60   TCP6PrDisconnect
81586040   TCP6ValidateMetrics
81586120   TcpPrDetach
81586200   TcpPrDisconnect
815862e0   TcpValidateMetrics
815864a0   UdpChecksum
81586580   VLANDeinit
81586660   VLANReceivePacket
81586820   _LLIExpListInsert
81586900   _RtExpListInsert
815869e0   __c6xabi_divi
815869e0   __divi
81586ba0   atoi
81586c80   close
81586d60   __TI_zero_init
81586f20   fdint_lockfd
81587000   fflush
815871c0   llExit
815872a0   ltoa
81587380   memset
81587460   mmBulkAlloc
81587540   pppFree
81587620   printf
81587700   ti_sysbios_knl_Clock_start__E
815877e0   ti_sysbios_hal_Timer_TimerProxy_startup__E
815877e0   ti_sysbios_hal_Timer_startup__E
815877e0   ti_sysbios_timers_timer64_Timer_startup__E
815878c0   xdc_runtime_Error_print__E
815878c0   xdc_runtime_Error_print__F
815879a0   xdc_runtime_LoggerBuf_Object__create__S
81587a80   xdc_runtime_Memory_alloc__E
81587a80   xdc_runtime_Memory_alloc__F
81587b60   HOSTread
81587c20   HOSTunlink
81587ce0   HOSTwrite
81587f20   IPv6Layer4ComputeChecksum
81587fe0   LLIGetValidTime
815880a0   LLIMsg
81588220   MLDLeaveGroup
815882e0   NIMUFindByName
815883a0   NS_BootTask
81588520   NtIfIdx2Ip
815885e0   Qmss_setEoiVector
815886a0   Rt6FindDefaultRouter
81588760   RtWalkBegin
81588820   SB6Flush
815888e0   SB6SetMax
815889a0   SBFlush
81588a60   Sock6IntAbort
81588b20   Sock6PcbResolveChain
81588be0   Sock6PcbRtChange
81588ca0   SockIntAbort
81588d60   SockPcbRtChange
81588e20   TCP6Close
81588ee0   TCP6TimeoutSackRexmt
81588fa0   TaskGetEnv
81589060   TcpChecksum
81589120   TcpClose
815891e0   TcpTimeoutSackRexmt
815894e0   __cxa_finalize
815895a0   __c6xabi_divu
815895a0   __divu
81589660   __c6xabi_remi
81589660   __remi
81589720   _doflush
815897e0   cppi_list_remove_node
815898a0   dhcpOptionsClear
81589960   efs_fopen
81589a20   exit
81589ae0   httpSendFullResponse
81589ba0   mmZeroInit
81589d20   strtok
81589de0   ti_ndk_config_Global_stackThread
81589ea0   ti_sysbios_BIOS_errorRaiseHook__I
81589f60   ti_sysbios_heaps_HeapMem_getStats__E
8158a020   ti_sysbios_knl_Clock_logTick__E
8158a0e0   ti_sysbios_knl_Task_stat__E
8158a1a0   ti_sysbios_timers_timer64_Timer_stop__E
8158a260   xdc_runtime_LoggerBuf_Instance_init__F
8158a320   xdc_runtime_System_formatNum__I
8158a3e0   CfgEntryDeRef
8158a480   CfgEntryGetData
8158a520   CfgGetImmediate
8158a700   Cppi_channelEnable
8158a7a0   FdSignalEvent
8158a840   HOSTclose
8158a8e0   IPReasmFree
8158a980   IPReasmTimeout
8158aa20   IPv6CompareAddress
8158aac0   LLIValidateRoute
8158ab60   MD5Final
8158ac00   NIMUShutdown
8158aca0   NIMUUnregister
8158ad40   NtAddNetwork
8158ade0   PBM_open
8158ae80   PipeCheck
8158af20   Qmss_queueClose
8158afc0   Qmss_startCfg
8158b060   RouteMsg
8158b1a0   SB6Free
8158b240   SBFree
8158b2e0   SemCreate
8158b380   Sock6CleanPcb
8158b420   Sock6GetName
8158b4c0   SockBind
8158b560   SockCleanPcb
8158b600   SockPcbResolveChain
8158b6a0   TCP6Drop
8158b740   TCP6PrCtlError
8158b7e0   TCP6PrSend
8158b880   TCP6PrSendOOB
8158b920   TaskCreate
8158b9c0   TcpDrop
8158ba60   TcpPrCtlError
8158bb00   TcpPrSend
8158bba0   TcpPrSendOOB
8158bc40   TimerNew
8158bd80   _LLITimeoutFlush
8158be20   __c6xabi_remu
8158be20   __remu
8158bec0   _c_int00
8158bf60   _cleanup
8158c1e0   authStart
8158c280   cppi_internal_heap_malloc
8158c320   cppi_list_cat
8158c3c0   dhcpBuildDecline
8158c500   efs_filesend
8158c5a0   fdCloseSession
8158c6e0   lcpInit
8158c820   llTimerTick
8158c8c0   lseek
8158c960   memcpy
8158ca00   mmBulkFree
8158cc80   stricmp
8158cd20   strspn
8158cdc0   strstr
8158ce60   ti_sysbios_heaps_HeapMem_init__I
8158cf00   ti_sysbios_knl_Clock_Object__create__S
8158cfa0   write
8158d040   xdc_runtime_Assert_raise__I
8158d0e0   xdc_runtime_LoggerBuf_Module_startup__E
8158d0e0   xdc_runtime_LoggerBuf_Module_startup__F
8158d180   Cppi_setCpdmaLoopback
8158d200   DNSGetHostByAddr
8158d300   ICMPChecksum
8158d400   ICMPv6RecvRS
8158d500   IPv6GetRoute
8158d580   LLI6Free
8158d680   LLIRemoveStaticEntry
8158d700   NC_SystemClose
8158d780   NIMUInit
8158d800   PBMQ_deq
8158d900   Pa_getBufferReq
8158d980   PipeClose
8158da00   Qmss_getMemRegQueueHandle
8158da80   Qmss_queueOpen
8158db00   RawEthSockClose
8158db80   RawEthSockPcbDetach
8158dc00   Rt6Update
8158dc80   RtSetFailure
8158dd00   RtSetTimeout
8158dd80   Sock6Bind
8158de00   Sock6PcbCleanup
8158de80   SockGetName
8158df00   SockPcbCleanup
8158df80   SockPcbDetach
8158e000   TCP6PrListen
8158e080   TaskSetEnv
8158e100   TcpPrListen
8158e180   TimerHSTick
8158e300   _LLIExpListRemove
8158e400   _RtExpListRemove
8158e480   __c6xabi_fixdu
8158e500   __c6xabi_llshl
8158e580   ti_sysbios_family_c62_TaskSupport_swap__E
8158e580   ti_sysbios_knl_Task_SupportProxy_swap__E
8158e600   cppi_internal_heap_cache_begin
8158e680   cppi_list_remove
8158e700   dhcpSocketClose
8158e780   efs_destroyfile
8158e800   efs_fclose
8158e900   fdint_waitevent
8158e980   httpSendEntityLength
8158ea00   httpSendErrorResponse
8158ea80   llTimerGetTime
8158eb00   malloc
8158ec00   readmsg
8158ed80   evmI2CInit
8158ee00   ti_sysbios_BIOS_exitFunc__I
8158ee80   ti_sysbios_family_c62_TaskSupport_start__E
8158ee80   ti_sysbios_knl_Task_SupportProxy_start__E
8158ef00   ti_sysbios_family_c64p_Exception_Module_startup__E
8158ef00   ti_sysbios_family_c64p_Exception_Module_startup__F
8158ef80   ti_sysbios_family_c64p_Hwi_eventMap__E
8158f000   ti_sysbios_gates_GateHwi_Object__create__S
8158f080   ti_sysbios_gates_GateMutex_Object__create__S
8158f100   ti_sysbios_hal_Hwi_checkStack
8158f180   ti_sysbios_heaps_HeapMem_Object__create__S
8158f200   ti_sysbios_knl_Clock_Module_startup__E
8158f200   ti_sysbios_knl_Clock_Module_startup__F
8158f280   ti_sysbios_knl_Clock_doTick__I
8158f300   ti_sysbios_knl_Clock_getTicks__E
8158f380   ti_sysbios_knl_Idle_loop__E
8158f400   ti_sysbios_knl_Queue_Object__create__S
8158f480   ti_sysbios_knl_Semaphore_Object__create__S
8158f500   ti_sysbios_knl_Semaphore_pendTimeout__I
8158f580   ti_sysbios_knl_Swi_startup__E
8158f600   ti_sysbios_knl_Task_deleteTerminatedTasksFunc__I
8158f680   ti_sysbios_knl_Task_restore__E
8158f700   ti_sysbios_timers_timer64_Timer_getCount__E
8158f700   ti_sysbios_timers_timer64_Timer_getExpiredCounts__E
8158f780   ti_sysbios_timers_timer64_Timer_getPeriod__E
8158f800   remove
8158f800   unlink
8158f880   xdc_runtime_Core_assignLabel__I
8158f900   xdc_runtime_Core_assignParams__I
8158f980   xdc_runtime_LoggerBuf_filterOutEvent__I
8158fa00   xdc_runtime_System_atexit__E
8158fa00   xdc_runtime_System_atexit__F
8158fa80   xdc_runtime_System_rtsExit__I
8158fb00   xdc_runtime_Text_printVisFxn__I
8158fb80   xdc_runtime_Text_xprintf__I
8158fc00   Bind6FindByIF
8158fc60   Bind6IF2IPHost
8158fcc0   BindFindByIF
8158fd20   BindFindByNet
8158fd80   BindGetIFByDBCast
8158fde0   BindIF2IPHost
8158fe40   CfgEntryInfo
8158fea0   CfgSetService
8158ff00   DNSBuildRequest
81590020   IGMPTestGroup
81590080   IPChecksum
815900e0   LLIFree
81590140   LLIGetMacAddr
815901a0   NIMUAddHeader
81590200   NIMUCreatePacket
81590260   NIMUFindByIndex
815902c0   NIMUPacketService
81590320   NIMUPacketServiceCheck
81590380   NIMUSendPacket
815903e0   NS_PreBoot
81590440   NtIPN2Str
81590500   RTCAddHook
81590560   RTCRemoveHook
815905c0   RawEthSockPcbCleanup
81590620   RawEthSockPcbFind
81590680   Rt6GetNetworkAddr
815906e0   RtWalkEnd
815907a0   Sock6PcbDetach
81590800   Sock6PrCtlError
81590860   Sock6PrDetach
815908c0   SockPrCtlError
81590920   SockPrDetach
81590980   TCP6PrConnect
815909e0   TCP6SetPersist
81590a40   TCP6TimeoutPersist
81590aa0   TcpPrConnect
81590b00   TcpSetPersist
81590b60   TcpTimeoutPersist
81590c80   VLANInit
81590d40   __c6xabi_frcmpyd_div
81590da0   __c6xabi_llshru
81590e00   _subcull
81590e60   cppi_list_add
81590ec0   cppi_list_cache_invalidate
81590f20   dhcpBuildDiscover
81590f80   dhcpPacketReceive
81590fe0   dhcpPacketSend
81591040   fdSelectAbort
815910a0   fdint_clearevent
81591100   fdint_getfdt
81591160   fdint_setevent
815911c0   fdsetTestEntry
81591220   httpSendClientStr
81591280   ipcpInit
815912e0   ipcpStart
81591340   lcpClose
815913a0   list_cat
81591400   list_remove_node
81591460   memccpy
815915e0   pppoeInput
81591640   recvncfree
815916a0   sprintf
81591760   strcspn
815917c0   ti_sysbios_BIOS_registerRTSLock__I
81591820   ti_sysbios_family_c62_TaskSupport_stackUsed__E
81591820   ti_sysbios_knl_Task_SupportProxy_stackUsed__E
81591880   ti_sysbios_family_c64p_EventCombiner_Module_startup__E
81591880   ti_sysbios_family_c64p_EventCombiner_Module_startup__F
815918e0   ti_sysbios_family_c64p_EventCombiner_dispatchPlug__E
815918e0   ti_sysbios_family_c64p_EventCombiner_dispatchPlug__F
81591940   ti_sysbios_family_c64p_EventCombiner_unused__E
81591940   ti_sysbios_family_c64p_EventCombiner_unused__F
815919a0   ti_sysbios_family_c64p_Hwi_restoreInterrupt__E
815919a0   ti_sysbios_hal_Hwi_HwiProxy_restoreInterrupt__E
815919a0   ti_sysbios_hal_Hwi_restoreInterrupt__E
81591a00   ti_sysbios_gates_GateMutex_Instance_init__F
81591a60   ti_sysbios_gates_GateMutex_Object__delete__S
81591ac0   ti_sysbios_hal_Hwi_initStack
81591b20   ti_sysbios_knl_Semaphore_Object__delete__S
81591b80   ti_sysbios_knl_Swi_Module_startup__E
81591b80   ti_sysbios_knl_Swi_Module_startup__F
81591be0   ti_sysbios_knl_Task_Object__delete__S
81591c40   ti_sysbios_knl_Task_allBlockedFunction__I
81591ca0   ti_sysbios_knl_Task_enter__I
81591d00   vsprintf
81591d60   writemsg
81591db8   C$$IO$$
81591dc0   xdc_runtime_LoggerBuf_Object__delete__S
81591e20   xdc_runtime_Memory_calloc__E
81591e20   xdc_runtime_Memory_calloc__F
81591e80   xdc_runtime_SysStd_abort__E
81591e80   xdc_runtime_SysStd_abort__F
81591e80   xdc_runtime_System_SupportProxy_abort__E
81591ee0   xdc_runtime_System_aprintf_va__E
81591ee0   xdc_runtime_System_aprintf_va__F
81591ee0   xdc_runtime_System_avprintf__E
81591ee0   xdc_runtime_System_avprintf__F
81591f40   xdc_runtime_System_printf_va__E
81591f40   xdc_runtime_System_printf_va__F
81591f40   xdc_runtime_System_vprintf__E
81591f40   xdc_runtime_System_vprintf__F
81591fa0   xdc_runtime_Text_cordText__E
81591fa0   xdc_runtime_Text_cordText__F
81592000   Bind6FindByHost
81592040   Bind6FindByNet
81592080   BindGetIP
815920c0   ExecClose
81592100   ExecTimer
81592140   IPv6IsLinkLocal
81592180   IPv6IsMulticast
815921c0   LLI6IsValid
81592200   MD5Init
81592240   MLDTestGroup
81592280   NC_BootComplete
815922c0   NDK_hookCreate
81592300   NtRemoveNetwork
81592340   Qmss_ackInterrupt
81592380   Qmss_getMemRegDescSize
815923c0   RawEthSockPcbInit
81592440   Rt6IsDefaultRoute
81592480   Sock6PcbAttach
815924c0   Sock6SetOOBMark
81592500   SockPcbAttach
81592540   SockSetOOBMark
81592580   TCP6TimeoutRemove
815925c0   TCP6TimeoutWait2
81592600   TaskDestroy
81592640   TcpTimeoutRemove
81592680   TcpTimeoutWait2
815926c0   __c6xabi_isinf
81592740   __c6xabi_call_stub
81592740   __call_stub
81592780   __c6xabi_strasgi_64plus
81592780   __strasgi_64plus
815927c0   _args_main
81592800   _llTimerInit
815928c0   ti_sysbios_family_c62_TaskSupport_buildTaskStack
81592900   ti_sysbios_family_xxx_Hwi_switchToIsrStack
81592940   efs_loadfunction
81592980   fdError
815929c0   fdint_freefdt
81592a00   free
81592a40   inet_addr
81592a80   list_add
81592ac0   list_remove
81592b80   ti_sysbios_BIOS_startFunc__I
81592bc0   ti_sysbios_BIOS_start__E
81592c00   ti_sysbios_family_c64p_EventCombiner_disableEvent__E
81592c00   ti_sysbios_family_c64p_EventCombiner_disableEvent__F
81592c40   ti_sysbios_family_c64p_EventCombiner_enableEvent__E
81592c40   ti_sysbios_family_c64p_EventCombiner_enableEvent__F
81592c80   ti_sysbios_family_c64p_Hwi_Module__startupDone__F
81592c80   ti_sysbios_family_c64p_Hwi_Module__startupDone__S
81592cc0   ti_sysbios_family_c64p_Hwi_disableInterrupt__E
81592cc0   ti_sysbios_hal_Hwi_HwiProxy_disableInterrupt__E
81592cc0   ti_sysbios_hal_Hwi_disableInterrupt__E
81592d00   ti_sysbios_family_c64p_Hwi_enableInterrupt__E
81592d00   ti_sysbios_hal_Hwi_HwiProxy_enableInterrupt__E
81592d00   ti_sysbios_hal_Hwi_enableInterrupt__E
81592d40   ti_sysbios_gates_GateHwi_Handle__label__S
81592d80   ti_sysbios_gates_GateHwi_Object__delete__S
81592dc0   ti_sysbios_gates_GateMutex_Handle__label__S
81592e00   ti_sysbios_gates_GateMutex_Instance_finalize__F
81592e40   ti_sysbios_gates_GateMutex_leave__E
81592e80   ti_sysbios_hal_Timer_Module__startupDone__F
81592e80   ti_sysbios_hal_Timer_Module__startupDone__S
81592ec0   ti_sysbios_heaps_HeapMem_Handle__label__S
81592f00   ti_sysbios_heaps_HeapMem_Object__delete__S
81592f40   ti_sysbios_heaps_HeapMem_Object__get__S
81592f80   ti_sysbios_knl_Clock_Object__destruct__S
81592fc0   ti_sysbios_knl_Semaphore_Instance_finalize__F
81593000   ti_sysbios_knl_Semaphore_Object__destruct__S
81593040   ti_sysbios_knl_Swi_Object__get__S
81593080   ti_sysbios_knl_Task_Handle__label__S
815930c0   ti_sysbios_knl_Task_Object__get__S
81593100   ti_sysbios_knl_Task_sleepTimeout__I
81593140   ti_sysbios_timers_timer64_Timer_Module__startupDone__F
81593140   ti_sysbios_timers_timer64_Timer_Module__startupDone__S
81593180   xdc_runtime_Error_check__E
81593180   xdc_runtime_Error_check__F
815931c0   xdc_runtime_Error_init__E
815931c0   xdc_runtime_Error_init__F
81593200   xdc_runtime_Gate_leaveSystem__E
81593200   xdc_runtime_Gate_leaveSystem__F
81593240   xdc_runtime_LoggerBuf_Handle__label__S
81593280   xdc_runtime_LoggerBuf_Instance_finalize__F
815932c0   xdc_runtime_LoggerBuf_Object__get__S
81593300   xdc_runtime_LoggerBuf_write0__E
81593300   xdc_runtime_LoggerBuf_write0__F
81593340   xdc_runtime_LoggerBuf_write1__E
81593340   xdc_runtime_LoggerBuf_write1__F
81593380   xdc_runtime_LoggerBuf_write2__E
81593380   xdc_runtime_LoggerBuf_write2__F
815933c0   xdc_runtime_Memory_free__E
815933c0   xdc_runtime_Memory_free__F
81593400   xdc_runtime_Registry_findById__E
81593400   xdc_runtime_Registry_findById__F
81593440   xdc_runtime_System_abort__E
81593440   xdc_runtime_System_abort__F
81593480   xdc_runtime_System_aprintf__E
815934c0   xdc_runtime_System_printf__E
81593500   xdc_runtime_Text_ropeText__E
81593500   xdc_runtime_Text_ropeText__F
81593540   Bind6GetInterfaceHandle
81593560   Bind6GetLifetime
81593580   Bind6SetLifetime
815935a0   BindGetFirst
815935c0   BindGetIF
815935e0   BindGetNext
81593600   BindIFNet2IPHost
81593620   BindIPHost2IF
81593640   CfgSetDefault
81593660   Cppi_getVersionStr
81593680   Cppi_init
815936a0   ExecHRef
815936c0   ExecLowResource
815936e0   IPRtChange
81593700   LED_TOGGLE
81593720   LLI6GetNetDevice
81593740   LLI6IncRefCount
81593760   LLI6IsDead
81593780   LLI6IsRouter
815937a0   LLI6SetIncomplete
815937c0   NC_IPUpdate
815937e0   NC_NetStop
81593800   NDK_hookInit
81593820   NIMUGetRsvdSizeInfo
81593840   NIMUSetRsvdSizeInfo
81593860   NatMsg
81593880   NodeGetRt
815938a0   NodeSetRt
815938c0   NotifyLowResource
815938e0   OEMCacheClean
81593900   OEMSysCritOff
81593920   OEMSysCritOn
81593940   PBM_close
81593960   Pa_getVersionStr
81593980   Qmss_getQueueNumber
815939a0   Qmss_getVersionStr
815939c0   Qmss_start
815939e0   RawEthSockPrAttach
81593a00   RawEthSockPrDetach
81593a20   Rt6GetIF
81593a40   Rt6GetLLI
81593a60   Rt6GetMTU
81593a80   Rt6IncRefCount
81593aa0   Rt6IsLocalRoute
81593ac0   SemDelete
81593ae0   SemPend
81593b00   SemPost
81593b20   SemReset
81593b40   Sock6PrAttach
81593b60   Sock6SetOOBData
81593b80   SockPrAttach
81593ba0   SockSetOOBData
81593bc0   TCP6PrRecv
81593be0   TCP6TimeoutAdd
81593c00   TaskBlock
81593c20   TaskSelf
81593c40   TaskSetPri
81593c60   TcpPrGetState
81593c80   TcpPrRecv
81593ca0   TcpTimeoutAdd
81593cc0   TimerFree
81593ce0   _TaskInit
81593d00   _TaskShutdown
81593d20   __c6xabi_errno_addr
81593d40   __c6xabi_negll
81593d60   __cxa_atexit
81593d80   __cxa_ia64_exit
81593da0   __c6xabi_pop_rts
81593da0   __pop_rts
81593dc0   __c6xabi_push_rts
81593dc0   __push_rts
81593de0   __xdc__init
81593e00   _llSerialInit
81593e20   _llSerialServiceCheck
81593e40   _llSerialShutdown
81593e60   _llTimerShutdown
81593e80   _llUserLedInit
81593ea0   _llUserLedShutdown
81593ec0   _nop
81593f60   _register_lock
81593f80   _register_unlock
81593fa0   ti_sysbios_family_c62_TaskSupport_glue
81593fc0   ti_sysbios_family_xxx_Hwi_switchToTaskStack
81593fe0   C$$EXIT
81593fe0   abort
81594000   atexit
81594020   cppi_internal_heap_free
81594040   cppi_list_get_head
81594060   cppi_list_get_next
81594080   CSL_versionGetStr
815940a0   __TI_decompress_none
815940c0   __TI_decompress_rle24
815940e0   efs_createfile
81594100   efs_getfilesize
81594120   fdint_signaltimeout
81594140   list_get_head
81594160   list_get_next
81594180   llSerialService
815941a0   llTimerGetStartTime
81594220   putc
81594240   putchar
81594260   ti_sysbios_BIOS_RtsGateProxy_enter__E
81594280   ti_sysbios_BIOS_RtsGateProxy_leave__E
815942a0   ti_sysbios_BIOS_setThreadType__E
815942c0   ti_sysbios_family_c62_TaskSupport_Module__startupDone__S
815942e0   ti_sysbios_family_c62_TaskSupport_checkStack__E
815942e0   ti_sysbios_knl_Task_SupportProxy_checkStack__E
81594300   ti_sysbios_family_c62_TaskSupport_getStackAlignment__E
81594300   ti_sysbios_knl_Task_SupportProxy_getStackAlignment__E
81594320   ti_sysbios_family_c64p_Hwi_clearInterrupt__E
81594320   ti_sysbios_hal_Hwi_HwiProxy_clearInterrupt__E
81594320   ti_sysbios_hal_Hwi_clearInterrupt__E
81594340   ti_sysbios_family_c64p_Hwi_startup__E
81594340   ti_sysbios_hal_Hwi_HwiProxy_startup__E
81594340   ti_sysbios_hal_Hwi_startup__E
81594360   ti_sysbios_family_c64p_Hwi_switchFromBootStack__E
81594360   ti_sysbios_hal_Hwi_HwiProxy_switchFromBootStack__E
81594360   ti_sysbios_hal_Hwi_switchFromBootStack__E
81594380   ti_sysbios_family_c64p_TimestampProvider_Module_startup__E
81594380   ti_sysbios_family_c64p_TimestampProvider_Module_startup__F
815943a0   ti_sysbios_family_c64p_TimestampProvider_get64__E
815943a0   xdc_runtime_LoggerBuf_TimestampProxy_get64__E
815943c0   ti_sysbios_family_c64p_tci6488_TimerSupport_enable__E
815943c0   ti_sysbios_timers_timer64_Timer_TimerSupportProxy_enable__E
815943e0   ti_sysbios_family_c66_Cache_wbInv__E
815943e0   ti_sysbios_hal_Cache_CacheProxy_wbInv__E
815943e0   ti_sysbios_hal_Cache_wbInv__E
81594400   ti_sysbios_gates_GateHwi_Instance_init__F
81594420   ti_sysbios_gates_GateHwi_enter__E
81594440   ti_sysbios_gates_GateHwi_leave__E
81594460   ti_sysbios_gates_GateHwi_query__E
81594460   ti_sysbios_gates_GateHwi_query__F
81594460   xdc_runtime_LoggerBuf_Module_GateProxy_query__E
81594460   xdc_runtime_Main_Module_GateProxy_query__E
81594460   xdc_runtime_System_Module_GateProxy_query__E
81594480   ti_sysbios_BIOS_RtsGateProxy_query__E
81594480   ti_sysbios_gates_GateMutex_query__E
81594480   ti_sysbios_gates_GateMutex_query__F
81594480   ti_sysbios_heaps_HeapMem_Module_GateProxy_query__E
815944a0   ti_sysbios_hal_Hwi_HwiProxy_Module__startupDone__S
815944c0   ti_sysbios_hal_Hwi_Module_startup__E
815944c0   ti_sysbios_hal_Hwi_Module_startup__F
815944e0   ti_sysbios_hal_Timer_Module_startup__E
815944e0   ti_sysbios_hal_Timer_Module_startup__F
81594500   ti_sysbios_hal_Timer_TimerProxy_Module__startupDone__S
81594520   ti_sysbios_hal_Timer_TimerProxy_getExpiredCounts__E
81594540   ti_sysbios_hal_Timer_TimerProxy_getPeriod__E
81594560   ti_sysbios_hal_Timer_TimerProxy_setNextTick__E
81594580   ti_sysbios_heaps_HeapMem_Module_GateProxy_enter__E
815945a0   ti_sysbios_heaps_HeapMem_Module_GateProxy_leave__E
815945c0   ti_sysbios_heaps_HeapMem_isBlocking__E
815945e0   ti_sysbios_knl_Clock_Params__init__S
81594600   ti_sysbios_knl_Queue_Instance_init__F
81594620   ti_sysbios_knl_Queue_Object__destruct__S
81594640   ti_sysbios_knl_Queue_Object__get__S
81594660   ti_sysbios_knl_Queue_empty__E
81594680   ti_sysbios_knl_Semaphore_reset__E
815946a0   ti_sysbios_knl_Swi_disable__E
815946c0   ti_sysbios_knl_Task_Object__first__S
815946e0   ti_sysbios_knl_Task_Object__next__S
81594700   ti_sysbios_knl_Task_Params__init__S
81594720   ti_sysbios_knl_Task_SupportProxy_Module__startupDone__S
81594740   ti_sysbios_knl_Task_disable__E
81594760   ti_sysbios_knl_Task_getHookContext__E
81594780   ti_sysbios_knl_Task_self__E
815947a0   ti_sysbios_knl_Task_setHookContext__E
815947c0   ti_sysbios_timers_timer64_Timer_setNextTick__E
815947e0   xdc_runtime_Error_getMsg__E
815947e0   xdc_runtime_Error_getMsg__F
81594800   xdc_runtime_Gate_enterSystem__E
81594800   xdc_runtime_Gate_enterSystem__F
81594860   xdc_runtime_LoggerBuf_Module_GateProxy_enter__E
81594880   xdc_runtime_LoggerBuf_Module_GateProxy_leave__E
815948a0   xdc_runtime_LoggerBuf_disable__E
815948a0   xdc_runtime_LoggerBuf_disable__F
815948c0   xdc_runtime_LoggerBuf_enable__E
815948c0   xdc_runtime_LoggerBuf_enable__F
815948e0   xdc_runtime_Memory_HeapProxy_alloc__E
81594900   xdc_runtime_Memory_HeapProxy_free__E
81594920   xdc_runtime_Startup_exec__I
81594940   xdc_runtime_Startup_reset__I
81594960   xdc_runtime_SysStd_exit__E
81594960   xdc_runtime_SysStd_exit__F
81594960   xdc_runtime_System_SupportProxy_exit__E
81594980   xdc_runtime_SysStd_putch__E
81594980   xdc_runtime_SysStd_putch__F
81594980   xdc_runtime_System_SupportProxy_putch__E
815949a0   xdc_runtime_SysStd_ready__E
815949a0   xdc_runtime_SysStd_ready__F
815949a0   xdc_runtime_System_SupportProxy_ready__E
815949c0   xdc_runtime_System_Module_GateProxy_enter__E
815949e0   xdc_runtime_System_Module_GateProxy_leave__E
81594a00   xdc_runtime_System_Module_startup__E
81594a00   xdc_runtime_System_Module_startup__F
81594a20   xdc_runtime_System_exit__E
81594a20   xdc_runtime_System_exit__F
81594a40   xdc_runtime_System_lastFxn__I
81594a60   xdc_runtime_System_sprintf_va__E
81594a60   xdc_runtime_System_sprintf_va__F
81594a60   xdc_runtime_System_vsprintf__E
81594a60   xdc_runtime_System_vsprintf__F
81594a80   xdc_runtime_Text_visitRope__I
81594aa0   c1
81596868   m
81598118   xdc_runtime_Text_charTab__A
81599328   c2
815a0cf8   acc48_le
815a1fb8   ti_sysbios_family_c66_Cache_marvalues__C
815a35a8   _ctypes_
815a37a8   xdc_runtime_Text_nodeTab__A
815a4308   pap_pdsp_const_reg_map
815a4580   Code2Err
815a4994   xdc_runtime_LoggerBuf_Module__FXNS__C
815a4a0c   ti_sysbios_knl_Task_Object__PARAMS__C
815a4a80   cppiLldVersionStr
815a4ab8   qmssLldVersionStr
815a4b20   xdc_runtime_Startup_sfxnTab__A
815a4b88   paLldVersionStr
815a4c50   ti_sysbios_knl_Task_hooks__A
815a4cb0   CSL_versionStr
815a4db4   ti_sysbios_heaps_HeapMem_Module__FXNS__C
815a4e04   xdc_runtime_LoggerBuf_Object__PARAMS__C
815a4e54   ti_sysbios_gates_GateHwi_Module__FXNS__C
815a4e78   ti_sysbios_gates_GateMutex_Module__FXNS__C
815a4e9c   ti_sysbios_knl_Clock_Object__PARAMS__C
815a4ec0   ti_sysbios_knl_Semaphore_Object__PARAMS__C
815a4f28   ti_sysbios_gates_GateHwi_Object__DESC__C
815a4f48   ti_sysbios_gates_GateMutex_Object__DESC__C
815a4f68   ti_sysbios_heaps_HeapMem_Object__DESC__C
815a4f88   ti_sysbios_heaps_HeapMem_Object__PARAMS__C
815a4fa8   ti_sysbios_knl_Clock_Object__DESC__C
815a4fc8   ti_sysbios_knl_Queue_Object__DESC__C
815a4fe8   ti_sysbios_knl_Semaphore_Object__DESC__C
815a5008   ti_sysbios_knl_Task_Object__DESC__C
815a5028   xdc_runtime_LoggerBuf_Object__DESC__C
815a50e0   xdc_runtime_Startup_sfxnRts__A
815a5148   ti_sysbios_gates_GateHwi_Object__PARAMS__C
815a5160   ti_sysbios_gates_GateMutex_Object__PARAMS__C
815a5178   ti_sysbios_knl_Queue_Object__PARAMS__C
815a520c   ti_sysbios_BIOS_Module__diagsEnabled__C
815a5224   ti_sysbios_BIOS_Module__diagsIncluded__C
815a5228   paMemAligns
815a5238   ti_sysbios_family_c64p_EventCombiner_EVTMASK__C
815a5270   ti_sysbios_family_c66_Cache_initSize__C
815a52a0   ti_sysbios_knl_Idle_funcList__A
815a52a8   ti_sysbios_knl_Idle_funcList__C
815a52b0   ti_sysbios_knl_Task_hooks__C
815a52b8   xdc_runtime_Startup_firstFxns__A
815a52c0   xdc_runtime_Startup_firstFxns__C
815a52c8   xdc_runtime_Startup_lastFxns__A
815a52d0   xdc_runtime_Startup_lastFxns__C
815a52f8   ti_sysbios_BIOS_Module__diagsMask__C
815a52fc   ti_sysbios_BIOS_installedErrorHook__C
815a5300   ti_sysbios_family_c62_TaskSupport_stackAlignment__C
815a5304   ti_sysbios_family_c64p_EventCombiner_E_unpluggedEvent__C
815a5308   ti_sysbios_family_c64p_Exception_E_exceptionMin__C
815a530c   ti_sysbios_family_c64p_Exception_exceptionHook__C
815a5310   ti_sysbios_family_c64p_Exception_externalHook__C
815a5314   ti_sysbios_family_c64p_Exception_internalHook__C
815a5318   ti_sysbios_family_c64p_Exception_nmiHook__C
815a531c   ti_sysbios_family_c64p_Hwi_LD_end__C
815a5320   ti_sysbios_family_c64p_Hwi_LM_begin__C
815a5324   ti_sysbios_family_c64p_Hwi_Module__diagsEnabled__C
815a5328   ti_sysbios_family_c64p_Hwi_Module__diagsIncluded__C
815a532c   ti_sysbios_family_c64p_Hwi_Module__diagsMask__C
815a5330   ti_sysbios_family_c64p_Hwi_Module__loggerFxn1__C
815a5334   ti_sysbios_family_c64p_Hwi_Module__loggerFxn8__C
815a5338   ti_sysbios_family_c64p_Hwi_Module__loggerObj__C
815a533c   ti_sysbios_family_c66_Cache_atomicBlockSize__C
815a5340   ti_sysbios_gates_GateMutex_A_badContext__C
815a5344   ti_sysbios_gates_GateMutex_Instance_State_sem__O
815a5348   ti_sysbios_gates_GateMutex_Module__diagsEnabled__C
815a534c   ti_sysbios_gates_GateMutex_Module__diagsIncluded__C
815a5350   ti_sysbios_gates_GateMutex_Module__diagsMask__C
815a5354   ti_sysbios_hal_Hwi_E_stackOverflow__C
815a5358   ti_sysbios_heaps_HeapMem_A_align__C
815a535c   ti_sysbios_heaps_HeapMem_A_heapSize__C
815a5360   ti_sysbios_heaps_HeapMem_A_invalidFree__C
815a5364   ti_sysbios_heaps_HeapMem_A_zeroBlock__C
815a5368   ti_sysbios_heaps_HeapMem_E_memory__C
815a536c   ti_sysbios_heaps_HeapMem_Module__diagsEnabled__C
815a5370   ti_sysbios_heaps_HeapMem_Module__diagsIncluded__C
815a5374   ti_sysbios_heaps_HeapMem_Module__diagsMask__C
815a5378   ti_sysbios_heaps_HeapMem_Module__gateObj__C
815a537c   ti_sysbios_heaps_HeapMem_Object__count__C
815a5380   ti_sysbios_heaps_HeapMem_reqAlignMask__C
815a5384   ti_sysbios_heaps_HeapMem_reqAlign__C
815a5388   ti_sysbios_knl_Clock_A_badThreadType__C
815a538c   ti_sysbios_knl_Clock_LM_begin__C
815a5390   ti_sysbios_knl_Clock_LM_tick__C
815a5394   ti_sysbios_knl_Clock_LW_delayed__C
815a5398   ti_sysbios_knl_Clock_Module_State_clockQ__O
815a539c   ti_sysbios_knl_Clock_Module__diagsEnabled__C
815a53a0   ti_sysbios_knl_Clock_Module__diagsIncluded__C
815a53a4   ti_sysbios_knl_Clock_Module__diagsMask__C
815a53a8   ti_sysbios_knl_Clock_Module__loggerFxn1__C
815a53ac   ti_sysbios_knl_Clock_Module__loggerFxn2__C
815a53b0   ti_sysbios_knl_Clock_Module__loggerObj__C
815a53b4   ti_sysbios_knl_Clock_tickMode__C
815a53b8   ti_sysbios_knl_Clock_tickPeriod__C
815a53bc   ti_sysbios_knl_Clock_tickSource__C
815a53c0   ti_sysbios_knl_Semaphore_A_badContext__C
815a53c4   ti_sysbios_knl_Semaphore_A_noEvents__C
815a53c8   ti_sysbios_knl_Semaphore_A_overflow__C
815a53cc   ti_sysbios_knl_Semaphore_Instance_State_pendQ__O
815a53d0   ti_sysbios_knl_Semaphore_LM_pend__C
815a53d4   ti_sysbios_knl_Semaphore_LM_post__C
815a53d8   ti_sysbios_knl_Semaphore_Module__diagsEnabled__C
815a53dc   ti_sysbios_knl_Semaphore_Module__diagsIncluded__C
815a53e0   ti_sysbios_knl_Semaphore_Module__diagsMask__C
815a53e4   ti_sysbios_knl_Semaphore_Module__loggerFxn2__C
815a53e8   ti_sysbios_knl_Semaphore_Module__loggerFxn4__C
815a53ec   ti_sysbios_knl_Semaphore_Module__loggerObj__C
815a53f0   ti_sysbios_knl_Swi_LD_end__C
815a53f4   ti_sysbios_knl_Swi_LM_begin__C
815a53f8   ti_sysbios_knl_Swi_LM_post__C
815a53fc   ti_sysbios_knl_Swi_Module__diagsEnabled__C
815a5400   ti_sysbios_knl_Swi_Module__diagsIncluded__C
815a5404   ti_sysbios_knl_Swi_Module__diagsMask__C
815a5408   ti_sysbios_knl_Swi_Module__loggerFxn1__C
815a540c   ti_sysbios_knl_Swi_Module__loggerFxn4__C
815a5410   ti_sysbios_knl_Swi_Module__loggerObj__C
815a5414   ti_sysbios_knl_Swi_Object__count__C
815a5418   ti_sysbios_knl_Task_A_badPriority__C
815a541c   ti_sysbios_knl_Task_A_badTaskState__C
815a5420   ti_sysbios_knl_Task_A_badThreadType__C
815a5424   ti_sysbios_knl_Task_A_badTimeout__C
815a5428   ti_sysbios_knl_Task_A_noPendElem__C
815a542c   ti_sysbios_knl_Task_E_spOutOfBounds__C
815a5430   ti_sysbios_knl_Task_E_stackOverflow__C
815a5434   ti_sysbios_knl_Task_LD_block__C
815a5438   ti_sysbios_knl_Task_LD_exit__C
815a543c   ti_sysbios_knl_Task_LD_ready__C
815a5440   ti_sysbios_knl_Task_LM_setPri__C
815a5444   ti_sysbios_knl_Task_LM_sleep__C
815a5448   ti_sysbios_knl_Task_LM_switch__C
815a544c   ti_sysbios_knl_Task_Module_State_inactiveQ__O
815a5450   ti_sysbios_knl_Task_Module_State_terminatedQ__O
815a5454   ti_sysbios_knl_Task_Module__diagsEnabled__C
815a5458   ti_sysbios_knl_Task_Module__diagsIncluded__C
815a545c   ti_sysbios_knl_Task_Module__diagsMask__C
815a5460   ti_sysbios_knl_Task_Module__loggerFxn2__C
815a5464   ti_sysbios_knl_Task_Module__loggerFxn4__C
815a5468   ti_sysbios_knl_Task_Module__loggerObj__C
815a546c   ti_sysbios_knl_Task_Object__count__C
815a5470   ti_sysbios_knl_Task_Object__heap__C
815a5474   ti_sysbios_knl_Task_allBlockedFunc__C
815a5478   ti_sysbios_knl_Task_defaultStackHeap__C
815a547c   ti_sysbios_knl_Task_defaultStackSize__C
815a5480   ti_sysbios_knl_Task_numConstructedTasks__C
815a5484   ti_sysbios_knl_Task_numPriorities__C
815a5488   ti_sysbios_timers_timer64_Timer_A_notAvailable__C
815a548c   ti_sysbios_timers_timer64_Timer_E_cannotSupport__C
815a5490   ti_sysbios_timers_timer64_Timer_Module__diagsEnabled__C
815a5494   ti_sysbios_timers_timer64_Timer_Module__diagsIncluded__C
815a5498   ti_sysbios_timers_timer64_Timer_Module__diagsMask__C
815a549c   ti_sysbios_timers_timer64_Timer_anyMask__C
815a54a0   ti_sysbios_timers_timer64_Timer_freqDivisor__C
815a54a4   ti_sysbios_timers_timer64_Timer_numLocalTimers__C
815a54a8   ti_sysbios_timers_timer64_Timer_numTimerDevices__C
815a54ac   xdc_runtime_Assert_E_assertFailed__C
815a54b0   xdc_runtime_Core_A_initializedParams__C
815a54b4   xdc_runtime_Core_Module__diagsEnabled__C
815a54b8   xdc_runtime_Core_Module__diagsIncluded__C
815a54bc   xdc_runtime_Core_Module__diagsMask__C
815a54c0   xdc_runtime_Error_E_generic__C
815a54c4   xdc_runtime_Error_E_memory__C
815a54c8   xdc_runtime_Error_Module__diagsEnabled__C
815a54cc   xdc_runtime_Error_Module__diagsIncluded__C
815a54d0   xdc_runtime_Error_Module__diagsMask__C
815a54d4   xdc_runtime_Error_Module__loggerFxn8__C
815a54d8   xdc_runtime_Error_Module__loggerObj__C
815a54dc   xdc_runtime_Error_policy__C
815a54e0   xdc_runtime_Error_raiseHook__C
815a54e4   xdc_runtime_IFilterLogger_Interface__BASE__C
815a54e8   xdc_runtime_IGateProvider_Interface__BASE__C
815a54ec   xdc_runtime_IHeap_Interface__BASE__C
815a54f0   xdc_runtime_ILogger_Interface__BASE__C
815a54f4   xdc_runtime_IModule_Interface__BASE__C
815a54f8   xdc_runtime_Log_L_error__C
815a54fc   xdc_runtime_LoggerBuf_E_badLevel__C
815a5500   xdc_runtime_LoggerBuf_Module__gateObj__C
815a5504   xdc_runtime_LoggerBuf_Object__count__C
815a5508   xdc_runtime_LoggerBuf_statusLogger__C
815a550c   xdc_runtime_Memory_defaultHeapInstance__C
815a5510   xdc_runtime_Startup_execImpl__C
815a5514   xdc_runtime_Startup_maxPasses__C
815a5518   xdc_runtime_Startup_sfxnRts__C
815a551c   xdc_runtime_Startup_sfxnTab__C
815a5520   xdc_runtime_System_Module__gateObj__C
815a5524   xdc_runtime_System_extendFxn__C
815a5528   xdc_runtime_System_maxAtexitHandlers__C
815a552c   xdc_runtime_Text_charTab__C
815a5530   xdc_runtime_Text_nameEmpty__C
815a5534   xdc_runtime_Text_nameStatic__C
815a5538   xdc_runtime_Text_nameUnknown__C
815a553c   xdc_runtime_Text_nodeTab__C
815a5540   xdc_runtime_Text_visitRopeFxn__C
815a5544   ti_sysbios_BIOS_Module__id__C
815a5548   ti_sysbios_family_c64p_EventCombiner_Module__id__C
815a554c   ti_sysbios_family_c64p_Exception_Module__id__C
815a5550   ti_sysbios_family_c64p_Hwi_Module__id__C
815a5554   ti_sysbios_family_c64p_Hwi_Module__loggerDefined__C
815a5558   ti_sysbios_gates_GateMutex_Module__id__C
815a555c   ti_sysbios_hal_Hwi_Module__id__C
815a5560   ti_sysbios_heaps_HeapMem_Module__id__C
815a5564   ti_sysbios_knl_Clock_Module__id__C
815a5568   ti_sysbios_knl_Clock_Module__loggerDefined__C
815a556c   ti_sysbios_knl_Semaphore_Module__id__C
815a5570   ti_sysbios_knl_Semaphore_Module__loggerDefined__C
815a5574   ti_sysbios_knl_Swi_Module__id__C
815a5578   ti_sysbios_knl_Swi_Module__loggerDefined__C
815a557c   ti_sysbios_knl_Task_Module__id__C
815a5580   ti_sysbios_knl_Task_Module__loggerDefined__C
815a5584   ti_sysbios_knl_Task_deleteTerminatedTasks__C
815a5588   ti_sysbios_knl_Task_initStackFlag__C
815a558c   ti_sysbios_timers_timer64_Timer_Module__id__C
815a5590   ti_sysbios_timers_timer64_Timer_startupNeeded__C
815a5594   xdc_runtime_Core_Module__id__C
815a5598   xdc_runtime_Error_Module__loggerDefined__C
815a559c   xdc_runtime_Error_maxDepth__C
815a55a0   xdc_runtime_LoggerBuf_Module__id__C
815a55a4   xdc_runtime_LoggerBuf_filterByLevel__C
815a55a8   xdc_runtime_Memory_Module__id__C
815a55ac   xdc_runtime_Text_charCnt__C
815a55b0   xdc_runtime_Text_isLoaded__C
815a55b4   xdc_runtime_Text_registryModsLastId__C
815a55b8   xdc_runtime_Text_unnamedModsLastId__C
815a5600   ti_ndk_config_Global_pit
815a57c0   ti_ndk_config_Global_pitBuffer
815b17c0   ti_sysbios_knl_Task_Instance_State_0_hookEnv__A
815b17c8   ti_sysbios_knl_Task_Instance_State_1_hookEnv__A
815b17d0   ti_sysbios_knl_Task_Instance_State_2_hookEnv__A
815b17d8   xdc_runtime_LoggerBuf_Instance_State_0_entryArr__A
815b1fd8   vlan_mcb
815b266c   raweth_pcb
815b30d0   HostName
815b31d0   http
815b31f8   dhcpservice
815b3220   gPlatformInfo
815b32b8   _tmpnams
815b33f8   qmssLObj
815b3708   IPV6_LINKLOCALMASK
815b3718   IPV6_MULTICASTMASK
815b3728   IPV6_UNSPECIFIED_ADDRESS
815b3738   IPV6_LOOPBACK_ADDRESS
815b3748   IPV6_HOST_MASK
815b3758   IPV6_ALL_NODES_ADDRESS
815b3768   IPV6_ALL_ROUTER_ADDRESS
815b3778   ipv6mcb
815b37d0   tcps
815b3888   tpseudo
815b3894   tcp6_stats
815b3950   _ICMPIn
815b39a0   _ICMPOut
815b39f0   BlockMax
815b3a10   BlockCount
815b3a30   PageMax
815b3a50   PageCount
815b3a6c   ips
815b3ad4   nimu_mcb
815b3b38   gI2cBlock
815b3bb4   udps
815b3bd8   upseudo
815b3be8   nimuGlobalConfigParams
815b3bf8   coreKey
815b3c18   udp6_stats
815b3c40   gCppiCfg
815b3c60   ti_ndk_config_Global_Id2Size
815b3c7c   icmp6stats
815b3c94   PBMQ_free
815b3cb4   stkEvent
815b3cc4   raws
815b3cd4   raw6_stats
815b3ce4   raweths
815b3d00   ti_sysbios_BIOS_Module__state__V
815b3d1c   ti_sysbios_family_c64p_EventCombiner_Module__state__V
815b411c   ti_sysbios_family_c64p_Exception_Module__state__V
815b4148   ti_sysbios_family_c64p_Hwi_Module__root__V
815b4150   ti_sysbios_family_c64p_Hwi_Module__state__V
815b41b8   ti_sysbios_gates_GateHwi_Module__root__V
815b41c0   ti_sysbios_gates_GateMutex_Module__root__V
815b41c8   ti_sysbios_hal_Hwi_Module__root__V
815b41d0   ti_sysbios_hal_Timer_Module__root__V
815b41d8   ti_sysbios_heaps_HeapMem_Module__root__V
815b41e0   ti_sysbios_knl_Clock_Module__root__V
815b41e8   ti_sysbios_knl_Clock_Module__state__V
815b4214   ti_sysbios_knl_Queue_Module__root__V
815b421c   ti_sysbios_knl_Semaphore_Module__root__V
815b4224   ti_sysbios_knl_Swi_Module__root__V
815b422c   ti_sysbios_knl_Swi_Module__state__V
815b4248   ti_sysbios_knl_Task_Module__root__V
815b4250   ti_sysbios_knl_Task_Module__state__V
815b4284   ti_sysbios_timers_timer64_Timer_Module__root__V
815b428c   ti_sysbios_timers_timer64_Timer_Module__state__V
815b42a0   xdc_runtime_Error_Module__state__V
815b42a4   xdc_runtime_LoggerBuf_Module__root__V
815b42ac   xdc_runtime_LoggerBuf_Module__state__V
815b42b4   xdc_runtime_Memory_Module__state__V
815b42b8   xdc_runtime_Registry_Module__state__V
815b42c0   xdc_runtime_Startup_Module__state__V
815b42c8   xdc_runtime_System_Module__state__V
815b42d4   xdc_runtime_Text_Module__state__V
815b42dc   __xdc__init__addr
815b42e0   _ftable
815b44c0   cppiGblCfgParams
815b4600   qmssGblCfgParams
815b4720   ti_sysbios_knl_Task_Object__table__V
815b47b0   TSK_idle
815b47f8   ti_sysbios_timers_timer64_Timer_Module_State_0_device__A
815b48b8   _ipcfg
815b496c   _ft_end
815b4a10   ti_sysbios_knl_Swi_Module_State_0_readyQ__A
815b4a90   ti_sysbios_knl_Task_Module_State_0_readyQ__A
815b4b10   ServiceStatus
815b4c00   ti_sysbios_family_c64p_Hwi_Object__table__V
815b4c78   NIMUDeviceTable
815b4c80   DNSErrorStrings
815b4d70   ti_sysbios_timers_timer64_Timer_Object__table__V
815b4e80   ti_sysbios_gates_GateMutex_Object__table__V
815b4ec0   ti_sysbios_timers_timer64_Timer_Module_State_0_gctrl__A
815b4f00   ti_sysbios_timers_timer64_Timer_Module_State_0_handles__A
815b4f40   ti_sysbios_timers_timer64_Timer_Module_State_0_intFreqs__A
815b4fb4   _cleanup_ptr
815b4fb8   _dtors_ptr
815b4fbc   __TI_enable_exit_profile_output
815b4ff4   __errno
815b4ff4   errno
815b4ff8   ti_sysbios_knl_Swi_Object__table__V
815b5054   _oscfg
815b5078   xdc_runtime_LoggerBuf_Object__table__V
815b50a0   Qmss_highEoiVector
815b50c0   pstrMsgName
815b50e0   xdc_runtime_System_Module_State_0_atexitHandlers__A
815b5100   ReportStr
815b5114   cppiLObj
815b5118   StatusStr
815b512c   paLObj
815b5144   _lock
815b5148   _unlock
815b5168   ti_sysbios_heaps_HeapMem_Object__table__V
815b5180   Qmss_lowEoiVector
815b51b0   ti_sysbios_hal_Hwi_Object__table__V
815b51b8   ti_sysbios_hal_Timer_Object__table__V
815b51c8   ti_sysbios_gates_GateHwi_Object__table__V
815b51d8   DHCP_OPTIONS
815b51e0   Qmss_cdmaEoiVector
815b5240   gDeviceNandBBlist
815b646c   gDeviceNand
815b64a4   gDeviceNor
815b64dc   gDeviceEeprom0
815b6514   gDeviceEeprom1
815b6550   emac_port_mode
815b6658   __TI_STATIC_BASE
815b6690   _IGMPInDiscard
815b6694   _IGMPInQuery
815b6698   _IGMPInQueryGroup
815b669c   _IGMPInResponse
815b66a0   _IGMPOutResponse
815b66a4   gTxCmdReturnQHnd
815b66a8   gTxCmdFreeQHnd
815b66ac   ethSemHandle
815b66bc   hCfg
815b66c0   pform_status
815b66fc   CONTENT_TYPE_APPLET
815b6700   CONTENT_TYPE_AU
815b6704   CONTENT_TYPE_CSS
815b6708   CONTENT_TYPE_DOC
815b670c   CONTENT_TYPE_GIF
815b6710   CONTENT_TYPE_HTML
815b6714   CONTENT_TYPE_JPG
815b6718   CONTENT_TYPE_MPEG
815b671c   CONTENT_TYPE_PDF
815b6720   CONTENT_TYPE_WAV
815b6724   CONTENT_TYPE_ZIP
815b6728   CONTENT_TYPE
815b672c   CONTENT_LENGTH
815b6730   CRLF
815b6734   DEFAULT_NAME
815b6738   HTTP_VER
815b673c   SPACE
815b6740   PITCount
815b6744   PITUsed
815b6748   PITHigh
815b6764   PAGEHEAD
815b6768   PAGEWRAPPER
815b676c   PAGEWRAPPERBACK
815b6770   PAGEFOOTER
815b6774   MAINHDR
815b6778   HDR
815b677c   ROW_END
815b6780   ROW_START
815b6800   _IGMPForceVersion1
815b6808   VerStr
815b680c   LocalIPAddr
815b6820   DebugLogSize
815b6824   DebugCritError
815b6830   _ICMPInErrors
815b6834   _ICMPOutErrors
815b6838   _IPExecuting
815b6848   gFragQList
815b6868   tcp_iss
815b686c   ptTimeFirst
815b6870   pt6TimeFirst
815b6874   tcp6_iss
815b6880   platform_errno
815b6884   platform_init_return_code
815b6898   httpErrorResponseHook
815b68a4   _IPReasmPtr
815b68ac   gMLDNodeList
815b68cc   qmssLObjIsValid
815b68d0   IPV6_MAX_MULTICAST_SOLICIT
815b68d4   IPV6_MAX_UNICAST_SOLICIT
815b68d8   IPV6_RETRANS_TIME
815b68dc   IPV6_DELAY_FIRST_PROBE_TIME
815b68e0   IPV6_REACHABLE_TIME
815b68e4   IPV6_MAX_RTR_SOLICITATION_DELAY
815b68e8   IPV6_RTR_SOLICITATION_INTERVAL
815b68ec   IPV6_MAX_RTR_SOLICITATIONS
815b68f0   INFINITE_LT
815b68f4   ti_ndk_config_Global_rawPageSize
815b68f8   ti_ndk_config_Global_rawPageCount
815b68fc   ti_ndk_config_Global_smallest
815b6900   ti_ndk_config_Global_largest
815b6904   ti_ndk_config_Global_numFrameBuf
815b6908   ti_ndk_config_Global_sizeFrameBuf
815e8424   __TI_Handler_Table_Base
815e8430   __TI_Handler_Table_Limit
815e8494   __TI_CINIT_Base
815e852c   __TI_CINIT_Limit
ffffffff   __TI_pprof_out_hndl
ffffffff   __TI_prof_data_size
ffffffff   __TI_prof_data_start
ffffffff   __binit__
ffffffff   __c_args__
ffffffff   binit
UNDEFED    __TI_INITARRAY_Base
UNDEFED    __TI_INITARRAY_Limit

[1697 symbols]
